0001   0000             ;__CVDUTEST________________________________________________________________________________________
0002   0000             ;
0003   0000             ;	CVDUTEST   COLOR VDU TEST
0004   0000             ;
0005   0000             ;	WRITTEN BY: DAN WERNER -- 11/4/2011
0006   0000             ;__________________________________________________________________________________________________
0007   0000             ;
0008   0000             
0009   0000             ; DATA CONSTANTS
0010   0000             ;__________________________________________________________________________________________________
0011   0000             ;IDE REGISTER		IO PORT		; FUNCTION
0012   0000             M8563Status 	.EQU	$E4
0013   0000             M8563Register 	.EQU	$E4
0014   0000             M8563Data 		.EQU	$E5
0015   0000             I8242Status 	.EQU	$E3	
0016   0000             I8242Command	.EQU 	$E3
0017   0000             I8242Data 		.EQU	$E2
0018   0000             
0019   0000             
0020   0100             	.ORG	$0100
0021   0100             ;__________________________________________________________________________________________________
0022   0100             ; MAIN PROGRAM BEGINS HERE
0023   0100             ;__________________________________________________________________________________________________
0024   0100             INITVDU:
0025   0100 CD 78 02        	CALL	VDU_INIT		; INIT VDU   					
0026   0103 CD 20 0C    	CALL 	KB_INITIALIZE		; INIT KB
0027   0106                 	
0028   0106 CD F1 02        	CALL	DSPMATRIX		; DISPLAY INIT MATRIX SCREEN
0029   0109 CD 3F 0C    	CALL	WAIT_KBHIT		; WAIT FOR A KEYSTROKE
0030   010C             	
0031   010C             LOOP1:	
0032   010C CD 51 0C    	CALL	GET_KEY
0033   010F 0E 0E       	LD	C,14
0034   0111 FE 0D       	CP	13
0035   0113 CA 26 01    	JP	Z,LOOP2
0036   0116 FE 1B       	CP	27
0037   0118 CA 38 01    	JP	Z,LOOP3
0038   011B FE 36       	CP	'6'
0039   011D CA 3E 01    	JP	Z,LOOP4
0040   0120 CD 4E 0B    	CALL 	VDU_PutChar		; DUMP CHAR TO DISPLAY
0041   0123 C3 0C 01    	JP	LOOP1
0042   0126             LOOP2:
0043   0126 3E 00           	LD  	A,0			; YES, WRAP TO NEXT LINE
0044   0128 32 EE 2E        	LD	(TERM_X),A		; STORE X
0045   012B 3A EF 2E        	LD	A,(TERM_Y)		; A= Y COORD
0046   012E 3C              	INC 	A			; INC Y COORD
0047   012F 32 EF 2E        	LD	(TERM_Y),A		; STORE Y
0048   0132 CD 00 0B        	CALL 	GOTO_XY 	       	; YES, HANDLE SCROLLING
0049   0135 C3 0C 01    	JP	LOOP1
0050   0138             LOOP3:		
0051   0138 0E 00       	LD	C,00H			; CP/M SYSTEM RESET CALL
0052   013A CD 05 00    	CALL	0005H			; RETURN TO PROMPT
0053   013D C9          	RET
0054   013E             LOOP4:
0055   013E CD DC 01    	CALL	REVERSE_SCROLL
0056   0141 C3 0C 01    	JP	LOOP1
0057   0144             
0058   0144             		
0059   0144             ;__DO_SCROLL_______________________________________________________________________________________
0060   0144             ;
0061   0144             ; 	SCROLL THE SCREEN UP ONE LINE
0062   0144             ;__________________________________________________________________________________________________			
0063   0144             DO_SCROLL:
0064   0144 F5          	PUSH	AF			; STORE AF	
0065   0145             DO_SCROLLE1:
0066   0145 E5          	PUSH	HL			; STORE HL
0067   0146 C5          	PUSH	BC			; STORE BC
0068   0147             	
0069   0147 06 18           	LD 	B, 24			; GET REGISTER 24	
0070   0149 CD 9F 0A    	CALL	VDU_GREG		;
0071   014C F6 80       	OR	80H			; TURN ON COPY BIT
0072   014E 57                 	LD	D,A			; PARK IT
0073   014F                  	
0074   014F 2A F3 2E    	LD 	HL, (VDU_DISPLAY_START)	; GET UP START OF DISPLAY
0075   0152 1E 17       	LD	E,23			;
0076   0154             DO_SCROLL1:	
0077   0154 06 12           	LD 	B, 18			; SET UPDATE(DEST) POS IN VDU
0078   0156 7C              	LD	A,H			;
0079   0157 CD 8B 0A        	CALL	VDU_WREG		; WRITE IT
0080   015A 06 13           	LD 	B, 19			; SET UPDATE(DEST) POS IN VDU
0081   015C 7D              	LD	A,L			;
0082   015D CD 8B 0A        	CALL	VDU_WREG		; WRITE IT
0083   0160 01 50 00        	LD	BC,0050H		;
0084   0163 09          	ADD	HL,BC			;
0085   0164 06 20              	LD 	B, 32			; SET SOURCE POS IN VDU
0086   0166 7C              	LD	A,H			;
0087   0167 CD 8B 0A        	CALL	VDU_WREG		; WRITE IT
0088   016A 06 21           	LD 	B, 33			; SET SOURCE POS IN VDU
0089   016C 7D              	LD	A,L			;
0090   016D CD 8B 0A        	CALL	VDU_WREG		; WRITE IT
0091   0170                 	
0092   0170 06 18           	LD 	B, 24			; SET COPY
0093   0172 7A              	LD	A,D			;
0094   0173 CD 8B 0A        	CALL	VDU_WREG		; WRITE IT
0095   0176              	    	
0096   0176 06 1E           	LD 	B, 30			; SET AMOUNT TO COPY
0097   0178 3E 50           	LD	A,050H			;
0098   017A CD 8B 0A        	CALL	VDU_WREG		; WRITE IT
0099   017D 3D          	DEC	A
0100   017E 7B              	LD	A,E			;
0101   017F FE 00           	CP	00H			;
0102   0181 C2 54 01          	JP	NZ,DO_SCROLL1		; LOOP TILL DONE
0103   0184                   	
0104   0184 2A F3 2E    	LD 	HL, (VDU_DISPLAY_START)	; GET UP START OF DISPLAY
0105   0187 01 20 08    	LD	BC,0820H		;
0106   018A 09          	ADD	HL,BC			;
0107   018B 1E 17       	LD	E,23
0108   018D             DO_SCROLL2:	
0109   018D 06 12           	LD 	B, 18			; SET UPDATE(DEST) POS IN VDU
0110   018F 7C              	LD	A,H			;
0111   0190 CD 8B 0A        	CALL	VDU_WREG		; WRITE IT
0112   0193 06 13           	LD 	B, 19			; SET UPDATE(DEST) POS IN VDU
0113   0195 7D              	LD	A,L			;
0114   0196 CD 8B 0A        	CALL	VDU_WREG		; WRITE IT
0115   0199 01 50 00        	LD	BC,0050H		;
0116   019C 09          	ADD	HL,BC			;
0117   019D 06 20              	LD 	B, 32			; SET SOURCE POS IN VDU
0118   019F 7C              	LD	A,H			;
0119   01A0 CD 8B 0A        	CALL	VDU_WREG		; WRITE IT
0120   01A3 06 21           	LD 	B, 33			; SET SOURCE POS IN VDU
0121   01A5 7D              	LD	A,L			;
0122   01A6 CD 8B 0A        	CALL	VDU_WREG		; WRITE IT
0123   01A9                 	
0124   01A9 06 18           	LD 	B, 24			; SET COPY
0125   01AB 7A              	LD	A,D			;
0126   01AC CD 8B 0A        	CALL	VDU_WREG		; WRITE IT
0127   01AF              	    	
0128   01AF 06 1E           	LD 	B, 30			; SET AMOUNT TO COPY
0129   01B1 3E 50           	LD	A,050H			;
0130   01B3 CD 8B 0A        	CALL	VDU_WREG		; WRITE IT
0131   01B6 1D          	DEC	E
0132   01B7 7B              	LD	A,E			;
0133   01B8 FE 00           	CP	00H			;
0134   01BA C2 8D 01          	JP	NZ,DO_SCROLL2		; LOOP TILL DONE      	
0135   01BD             
0136   01BD                 	
0137   01BD 3E 17           	LD	A,23			; SET CURSOR TO BEGINNING OF LAST LINE
0138   01BF 32 EF 2E        	LD	(TERM_Y),A		;
0139   01C2 3A EE 2E        	LD	A,(TERM_X)		;
0140   01C5 F5              	PUSH	AF			; STORE X COORD
0141   01C6 3E 00           	LD	A,0			;
0142   01C8 32 EE 2E        	LD	(TERM_X),A		;
0143   01CB CD 00 0B        	CALL	GOTO_XY			; SET CURSOR POSITION TO BEGINNING OF LINE
0144   01CE F1          	POP	AF			; RESTORE X COORD
0145   01CF C1              	POP	BC			; RESTORE BC	
0146   01D0 CD D8 02        	CALL	PERF_ERASE_EOL		; ERASE SCROLLED LINE
0147   01D3 32 EE 2E    	LD	(TERM_X),A		;
0148   01D6 CD 00 0B       	CALL	GOTO_XY			; SET CURSOR POSITION
0149   01D9 E1              	POP	HL			; RESTORE HL
0150   01DA F1              	POP	AF			; RESTORE AF
0151   01DB C9              	RET				;
0152   01DC                 	
0153   01DC             ;__REVERSE_SCROLL__________________________________________________________________________________
0154   01DC             ;
0155   01DC             ; 	SCROLL THE SCREEN DOWN ONE LINE
0156   01DC             ;__________________________________________________________________________________________________			
0157   01DC             REVERSE_SCROLL:
0158   01DC F5          	PUSH	AF			; STORE AF	
0159   01DD E5          	PUSH	HL			; STORE HL
0160   01DE C5          	PUSH	BC			; STORE BC
0161   01DF             	
0162   01DF 06 18           	LD 	B, 24			; GET REGISTER 24	
0163   01E1 CD 9F 0A    	CALL	VDU_GREG		;
0164   01E4 F6 80       	OR	80H			; TURN ON COPY BIT
0165   01E6 5F                 	LD	E,A			; PARK IT
0166   01E7                  	
0167   01E7 2A F3 2E    	LD 	HL, (VDU_DISPLAY_START)	; GET UP START OF DISPLAY
0168   01EA 01 30 07    	LD	BC,0730H		;
0169   01ED 09          	ADD  	HL,BC
0170   01EE 16 17       	LD	D,23			;
0171   01F0             REVERSE_SCROLL1:	
0172   01F0 06 12           	LD 	B, 18			; SET UPDATE(DEST) POS IN VDU
0173   01F2 7C              	LD	A,H			;
0174   01F3 CD 8B 0A        	CALL	VDU_WREG		; WRITE IT
0175   01F6 06 13           	LD 	B, 19			; SET UPDATE(DEST) POS IN VDU
0176   01F8 7D              	LD	A,L			;
0177   01F9 CD 8B 0A        	CALL	VDU_WREG		; WRITE IT
0178   01FC 01 B0 FF        	LD	BC,0FFB0H		;
0179   01FF 09          	ADD	HL,BC			;
0180   0200 06 20              	LD 	B, 32			; SET SOURCE POS IN VDU
0181   0202 7C              	LD	A,H			;
0182   0203 CD 8B 0A        	CALL	VDU_WREG		; WRITE IT
0183   0206 06 21           	LD 	B, 33			; SET SOURCE POS IN VDU
0184   0208 7D              	LD	A,L			;
0185   0209 CD 8B 0A        	CALL	VDU_WREG		; WRITE IT
0186   020C                 	
0187   020C 06 18           	LD 	B, 24			; SET COPY
0188   020E 7B              	LD	A,E			;
0189   020F CD 8B 0A        	CALL	VDU_WREG		; WRITE IT
0190   0212              	    	
0191   0212 06 1E           	LD 	B, 30			; SET AMOUNT TO COPY
0192   0214 3E 50           	LD	A,050H			;
0193   0216 CD 8B 0A        	CALL	VDU_WREG		; WRITE IT
0194   0219             
0195   0219 15          	DEC	D
0196   021A 7A              	LD	A,D			;
0197   021B FE 00           	CP	00H			;
0198   021D C2 F0 01          	JP	NZ,REVERSE_SCROLL1	; LOOP TILL DONE
0199   0220             
0200   0220                  	
0201   0220 2A F3 2E    	LD 	HL, (VDU_DISPLAY_START)	; GET UP START OF DISPLAY
0202   0223 01 50 0F    	LD	BC,0F50H		;
0203   0226 09          	ADD	HL,BC
0204   0227 16 17       	LD	D,23			;
0205   0229             REVERSE_SCROLL2:	
0206   0229 06 12           	LD 	B, 18			; SET UPDATE(DEST) POS IN VDU
0207   022B 7C              	LD	A,H			;
0208   022C CD 8B 0A        	CALL	VDU_WREG		; WRITE IT
0209   022F 06 13           	LD 	B, 19			; SET UPDATE(DEST) POS IN VDU
0210   0231 7D              	LD	A,L			;
0211   0232 CD 8B 0A        	CALL	VDU_WREG		; WRITE IT
0212   0235 01 B0 FF        	LD	BC,0FFB0H		;
0213   0238 09          	ADD	HL,BC			;
0214   0239 06 20              	LD 	B, 32			; SET SOURCE POS IN VDU
0215   023B 7C              	LD	A,H			;
0216   023C CD 8B 0A        	CALL	VDU_WREG		; WRITE IT
0217   023F 06 21           	LD 	B, 33			; SET SOURCE POS IN VDU
0218   0241 7D              	LD	A,L			;
0219   0242 CD 8B 0A        	CALL	VDU_WREG		; WRITE IT
0220   0245                 	
0221   0245 06 18           	LD 	B, 24			; SET COPY
0222   0247 7B              	LD	A,E			;
0223   0248 CD 8B 0A        	CALL	VDU_WREG		; WRITE IT
0224   024B              	    	
0225   024B 06 1E           	LD 	B, 30			; SET AMOUNT TO COPY
0226   024D 3E 50           	LD	A,050H			;
0227   024F CD 8B 0A        	CALL	VDU_WREG		; WRITE IT
0228   0252             
0229   0252 15          	DEC	D
0230   0253 7A              	LD	A,D			;
0231   0254 FE 00           	CP	00H			;
0232   0256 C2 29 02          	JP	NZ,REVERSE_SCROLL2	; LOOP TILL DONE    	
0233   0259 3E 00           	LD	A,0			; SET CURSOR TO BEGINNING OF FIRST LINE
0234   025B 32 EF 2E        	LD	(TERM_Y),A		;
0235   025E 3A EE 2E        	LD	A,(TERM_X)		;
0236   0261 F5             	PUSH	AF			; STORE X COORD
0237   0262 3E 00           	LD	A,0			;
0238   0264 32 EE 2E        	LD	(TERM_X),A		;
0239   0267 CD 00 0B        	CALL	GOTO_XY			; SET CURSOR POSITION TO BEGINNING OF LINE
0240   026A F1              	POP	AF			; RESTORE AF
0241   026B C1              	POP	BC			; RESTORE BC
0242   026C CD D8 02        	CALL	PERF_ERASE_EOL		; ERASE SCROLLED LINE
0243   026F 32 EE 2E    	LD	(TERM_X),A		;
0244   0272 CD 00 0B       	CALL	GOTO_XY			; SET CURSOR POSITION
0245   0275 E1              	POP	HL			; RESTORE HL
0246   0276 F1              	POP	AF			; RESTORE AF
0247   0277 C9              	RET				;
0248   0278             	
0249   0278             	
0250   0278             
0251   0278             ;__VDU_INIT_________________________________________________________________________________________
0252   0278             ;
0253   0278             ; 	INITIALIZE VDU
0254   0278             ;__________________________________________________________________________________________________			
0255   0278             VDU_INIT:
0256   0278 F5          	PUSH 	AF			; STORE AF
0257   0279 D5          	PUSH 	DE			; STORE DE
0258   027A E5          	PUSH 	HL			; STORE HL
0259   027B C5          	PUSH	BC			; STORE BC
0260   027C             
0261   027C CD D6 0A    	CALL 	VDU_CRTInit		; INIT 8563 VDU CHIP	
0262   027F CD EB 0B    	CALL	VDU_LOADFONT		;
0263   0282 CD 92 02    	CALL	PERF_CURSOR_HOME	; CURSOR HOME
0264   0285 0E 0E       	LD	C,14			;	
0265   0287 CD 9D 02    	CALL	PERF_ERASE_EOS		; CLEAR SCREEN
0266   028A CD EE 0A        	CALL 	VDU_CursorOn		; TURN ON CURSOR
0267   028D             
0268   028D C1              	POP	BC			;
0269   028E E1                 	POP 	HL			;
0270   028F D1          	POP 	DE			;
0271   0290 F1          	POP 	AF			;
0272   0291             
0273   0291 C9             	RET	
0274   0292             	
0275   0292             ;__PERF_CURSOR_HOME________________________________________________________________________________
0276   0292             ;
0277   0292             ; 	PERFORM CURSOR HOME
0278   0292             ;__________________________________________________________________________________________________	
0279   0292             PERF_CURSOR_HOME:
0280   0292 3E 00       	LD	A,0			; LOAD 0 INTO A
0281   0294 32 EE 2E    	LD	(TERM_X),A		; SET X COORD
0282   0297 32 EF 2E    	LD	(TERM_Y),A		; SET Y COORD
0283   029A C3 00 0B    	JP	GOTO_XY			; MOVE CURSOR TO POSITION
0284   029D             
0285   029D             ;__PERF_ERASE_EOS__________________________________________________________________________________
0286   029D             ;
0287   029D             ; 	PERFORM ERASE FROM CURSOR POS TO END OF SCREEN
0288   029D             ;       C= DEFAULT COLOR
0289   029D             ;__________________________________________________________________________________________________	
0290   029D             PERF_ERASE_EOS:	
0291   029D E5          	PUSH	HL
0292   029E F5          	PUSH	AF
0293   029F C5          	PUSH	BC
0294   02A0             
0295   02A0 2A F1 2E        	LD 	HL, (VDU_DisplayPos)	; GET CURRENT DISPLAY ADDRESS
0296   02A3 06 12           	LD 	B, 18			; SET UPDATE CSR POS IN VDU
0297   02A5 7C              	LD	A,H			;
0298   02A6 CD 8B 0A        	CALL	VDU_WREG		; WRITE IT
0299   02A9 06 13           	LD 	B, 19			; SET UPDATE CSR POS IN VDU
0300   02AB 7D              	LD	A,L			;
0301   02AC CD 8B 0A        	CALL	VDU_WREG		; WRITE IT   		
0302   02AF CD 00 0B    	CALL	GOTO_XY			; MOVE CURSOR 
0303   02B2 11 20 08    	LD	DE,0820H		; SET SCREEN SIZE INTO HL
0304   02B5             PERF_ERASE_EOS_LOOP:		
0305   02B5 3E 20           	LD 	A, ' '           	; MOVE SPACE CHARACTER INTO A
0306   02B7 06 1F       	LD	B,31			;
0307   02B9 CD 8B 0A           	CALL	VDU_WREG	 	; WRITE IT TO SCREEN, VDU WILL AUTO INC TO NEXT ADDRESS
0308   02BC 1B                	DEC	DE			; DEC COUNTER
0309   02BD 7A              	LD 	A,D			; IS COUNTER 0 YET?
0310   02BE B3              	OR 	E			;
0311   02BF C2 B5 02        	JP 	NZ,PERF_ERASE_EOS_LOOP	; NO, LOOP
0312   02C2 11 20 08    	LD	DE,0820H		; SET SCREEN SIZE INTO HL
0313   02C5             PERF_ERASE_EOS_CLOOP:		
0314   02C5 79              	LD 	A, C	           	; MOVE COLOR INTO A
0315   02C6 06 1F       	LD	B,31			;
0316   02C8 CD 8B 0A           	CALL	VDU_WREG	 	; WRITE IT TO SCREEN, VDU WILL AUTO INC TO NEXT ADDRESS
0317   02CB 1B                	DEC	DE			; DEC COUNTER
0318   02CC 7A              	LD 	A,D			; IS COUNTER 0 YET?
0319   02CD B3              	OR 	E			;
0320   02CE C2 C5 02        	JP 	NZ,PERF_ERASE_EOS_CLOOP	; NO, LOOP
0321   02D1                 	
0322   02D1 CD 00 0B    	CALL	GOTO_XY			; YES, MOVE CURSOR BACK TO ORIGINAL POSITION
0323   02D4 C1          	POP	BC
0324   02D5 F1          	POP	AF
0325   02D6 E1          	POP	HL
0326   02D7 C9          	RET	
0327   02D8             
0328   02D8             ;__PERF_ERASE_EOL__________________________________________________________________________________
0329   02D8             ;
0330   02D8             ; 	PERFORM ERASE FROM CURSOR POS TO END OF LINE
0331   02D8             ;       C=DEFAULT COLOR
0332   02D8             ;__________________________________________________________________________________________________	
0333   02D8             PERF_ERASE_EOL:	
0334   02D8 E5          	PUSH	HL
0335   02D9 F5          	PUSH	AF
0336   02DA C5          	PUSH	BC
0337   02DB             
0338   02DB 3A EE 2E    	LD	A,(TERM_X)		; GET CURRENT CURSOR X COORD
0339   02DE 57          	LD	D,A			; STORE IT IN C
0340   02DF 3E 50       	LD	A,80			; MOVE CURRENT LINE WIDTH INTO A
0341   02E1 92          	SUB	D			; GET REMAINING POSITIONS ON CURRENT LINE
0342   02E2 47          	LD	B,A			; MOVE IT INTO B
0343   02E3             PERF_ERASE_EOL_LOOP:		
0344   02E3 3E 20           	LD 	A, ' '           	; MOVE SPACE CHARACTER INTO A
0345   02E5 CD B6 0B    	CALL	VDU_PutCharRAW		;
0346   02E8 10 F9       	DJNZ    PERF_ERASE_EOL_LOOP	; LOOP UNTIL DONE
0347   02EA CD 00 0B    	CALL	GOTO_XY			; MOVE CURSOR BACK TO ORIGINAL POSITION
0348   02ED C1          	POP	BC
0349   02EE F1          	POP	AF
0350   02EF E1          	POP	HL
0351   02F0 C9          	RET
0352   02F1             		
0353   02F1             ;__DSPMATRIX_______________________________________________________________________________________
0354   02F1             ;
0355   02F1             ; 	DISPLAY INTRO SCREEN
0356   02F1             ;__________________________________________________________________________________________________			
0357   02F1             DSPMATRIX:
0358   02F1 CD 92 02    	CALL	PERF_CURSOR_HOME	; RESET CURSOR TO HOME POSITION
0359   02F4 21 0B 03        	LD	HL,TESTMATRIX		; SET HL TO SCREEN IMAGE
0360   02F7 11 7F 07    	LD 	DE, 1919   		; SET IMAGE SIZE
0361   02FA 0E 03       	LD	C,00000011B		; SET COLOR
0362   02FC             DSPMATRIX_LOOP:    	
0363   02FC 7E              	LD 	A,(HL)			; GET NEXT CHAR FROM IMAGE
0364   02FD CD 4E 0B        	call 	VDU_PutChar		; DUMP CHAR TO DISPLAY
0365   0300 23              	INC	HL			; INC POINTER
0366   0301 1B          	DEC	DE			; DEC COUNTER
0367   0302 7A              	LD 	A,D			; IS COUNTER ZERO?
0368   0303 B3              	OR 	E			;
0369   0304 C2 FC 02        	JP 	NZ,DSPMATRIX_LOOP	; NO, LOOP
0370   0307 CD 92 02    	CALL	PERF_CURSOR_HOME	; YES, RESET CURSOR TO HOME POSITION
0371   030A C9          	RET
0372   030B             
0373   030B             TESTMATRIX:
0374   030B 30 20 20 20  .TEXT "0         1         2         3         4         5         6         7         "
0374   030F 20 20 20 20 
0374   0313 20 20 31 20 
0374   0317 20 20 20 20 
0374   031B 20 20 20 20 
0374   031F 32 20 20 20 
0374   0323 20 20 20 20 
0374   0327 20 20 33 20 
0374   032B 20 20 20 20 
0374   032F 20 20 20 20 
0374   0333 34 20 20 20 
0374   0337 20 20 20 20 
0374   033B 20 20 35 20 
0374   033F 20 20 20 20 
0374   0343 20 20 20 20 
0374   0347 36 20 20 20 
0374   034B 20 20 20 20 
0374   034F 20 20 37 20 
0374   0353 20 20 20 20 
0374   0357 20 20 20 20 
0375   035B 30 31 32 33  .TEXT "01234567890123456789012345678901234567890123456789012345678901234567890123456789"
0375   035F 34 35 36 37 
0375   0363 38 39 30 31 
0375   0367 32 33 34 35 
0375   036B 36 37 38 39 
0375   036F 30 31 32 33 
0375   0373 34 35 36 37 
0375   0377 38 39 30 31 
0375   037B 32 33 34 35 
0375   037F 36 37 38 39 
0375   0383 30 31 32 33 
0375   0387 34 35 36 37 
0375   038B 38 39 30 31 
0375   038F 32 33 34 35 
0375   0393 36 37 38 39 
0375   0397 30 31 32 33 
0375   039B 34 35 36 37 
0375   039F 38 39 30 31 
0375   03A3 32 33 34 35 
0375   03A7 36 37 38 39 
0376   03AB 32 20 20 20  .TEXT "2                                                                               "
0376   03AF 20 20 20 20 
0376   03B3 20 20 20 20 
0376   03B7 20 20 20 20 
0376   03BB 20 20 20 20 
0376   03BF 20 20 20 20 
0376   03C3 20 20 20 20 
0376   03C7 20 20 20 20 
0376   03CB 20 20 20 20 
0376   03CF 20 20 20 20 
0376   03D3 20 20 20 20 
0376   03D7 20 20 20 20 
0376   03DB 20 20 20 20 
0376   03DF 20 20 20 20 
0376   03E3 20 20 20 20 
0376   03E7 20 20 20 20 
0376   03EB 20 20 20 20 
0376   03EF 20 20 20 20 
0376   03F3 20 20 20 20 
0376   03F7 20 20 20 20 
0377   03FB 33 20 20 20  .TEXT "3                                                                               "
0377   03FF 20 20 20 20 
0377   0403 20 20 20 20 
0377   0407 20 20 20 20 
0377   040B 20 20 20 20 
0377   040F 20 20 20 20 
0377   0413 20 20 20 20 
0377   0417 20 20 20 20 
0377   041B 20 20 20 20 
0377   041F 20 20 20 20 
0377   0423 20 20 20 20 
0377   0427 20 20 20 20 
0377   042B 20 20 20 20 
0377   042F 20 20 20 20 
0377   0433 20 20 20 20 
0377   0437 20 20 20 20 
0377   043B 20 20 20 20 
0377   043F 20 20 20 20 
0377   0443 20 20 20 20 
0377   0447 20 20 20 20 
0378   044B 34 20 20 20  .TEXT "4               =====================================================           "
0378   044F 20 20 20 20 
0378   0453 20 20 20 20 
0378   0457 20 20 20 20 
0378   045B 3D 3D 3D 3D 
0378   045F 3D 3D 3D 3D 
0378   0463 3D 3D 3D 3D 
0378   0467 3D 3D 3D 3D 
0378   046B 3D 3D 3D 3D 
0378   046F 3D 3D 3D 3D 
0378   0473 3D 3D 3D 3D 
0378   0477 3D 3D 3D 3D 
0378   047B 3D 3D 3D 3D 
0378   047F 3D 3D 3D 3D 
0378   0483 3D 3D 3D 3D 
0378   0487 3D 3D 3D 3D 
0378   048B 3D 3D 3D 3D 
0378   048F 3D 20 20 20 
0378   0493 20 20 20 20 
0378   0497 20 20 20 20 
0379   049B 35 20 20 20  .TEXT "5                                                                               "
0379   049F 20 20 20 20 
0379   04A3 20 20 20 20 
0379   04A7 20 20 20 20 
0379   04AB 20 20 20 20 
0379   04AF 20 20 20 20 
0379   04B3 20 20 20 20 
0379   04B7 20 20 20 20 
0379   04BB 20 20 20 20 
0379   04BF 20 20 20 20 
0379   04C3 20 20 20 20 
0379   04C7 20 20 20 20 
0379   04CB 20 20 20 20 
0379   04CF 20 20 20 20 
0379   04D3 20 20 20 20 
0379   04D7 20 20 20 20 
0379   04DB 20 20 20 20 
0379   04DF 20 20 20 20 
0379   04E3 20 20 20 20 
0379   04E7 20 20 20 20 
0380   04EB 36 20 20 20  .TEXT "6                 ****   *     *  ****    *    *        ****   *  *             "
0380   04EF 20 20 20 20 
0380   04F3 20 20 20 20 
0380   04F7 20 20 20 20 
0380   04FB 20 20 2A 2A 
0380   04FF 2A 2A 20 20 
0380   0503 20 2A 20 20 
0380   0507 20 20 20 2A 
0380   050B 20 20 2A 2A 
0380   050F 2A 2A 20 20 
0380   0513 20 20 2A 20 
0380   0517 20 20 20 2A 
0380   051B 20 20 20 20 
0380   051F 20 20 20 20 
0380   0523 2A 2A 2A 2A 
0380   0527 20 20 20 2A 
0380   052B 20 20 2A 20 
0380   052F 20 20 20 20 
0380   0533 20 20 20 20 
0380   0537 20 20 20 20 
0381   053B 37 20 20 20  .TEXT "7                *    *  *     *  *   *   *    *       *    *  * *              "
0381   053F 20 20 20 20 
0381   0543 20 20 20 20 
0381   0547 20 20 20 20 
0381   054B 20 2A 20 20 
0381   054F 20 20 2A 20 
0381   0553 20 2A 20 20 
0381   0557 20 20 20 2A 
0381   055B 20 20 2A 20 
0381   055F 20 20 2A 20 
0381   0563 20 20 2A 20 
0381   0567 20 20 20 2A 
0381   056B 20 20 20 20 
0381   056F 20 20 20 2A 
0381   0573 20 20 20 20 
0381   0577 2A 20 20 2A 
0381   057B 20 2A 20 20 
0381   057F 20 20 20 20 
0381   0583 20 20 20 20 
0381   0587 20 20 20 20 
0382   058B 38 20 20 20  .TEXT "8                *       *     *  *    *  *    *       *    *  **               "
0382   058F 20 20 20 20 
0382   0593 20 20 20 20 
0382   0597 20 20 20 20 
0382   059B 20 2A 20 20 
0382   059F 20 20 20 20 
0382   05A3 20 2A 20 20 
0382   05A7 20 20 20 2A 
0382   05AB 20 20 2A 20 
0382   05AF 20 20 20 2A 
0382   05B3 20 20 2A 20 
0382   05B7 20 20 20 2A 
0382   05BB 20 20 20 20 
0382   05BF 20 20 20 2A 
0382   05C3 20 20 20 20 
0382   05C7 2A 20 20 2A 
0382   05CB 2A 20 20 20 
0382   05CF 20 20 20 20 
0382   05D3 20 20 20 20 
0382   05D7 20 20 20 20 
0383   05DB 39 20 20 20  .TEXT "9                *        *   *   *    *  *    *       *    *  **               "
0383   05DF 20 20 20 20 
0383   05E3 20 20 20 20 
0383   05E7 20 20 20 20 
0383   05EB 20 2A 20 20 
0383   05EF 20 20 20 20 
0383   05F3 20 20 2A 20 
0383   05F7 20 20 2A 20 
0383   05FB 20 20 2A 20 
0383   05FF 20 20 20 2A 
0383   0603 20 20 2A 20 
0383   0607 20 20 20 2A 
0383   060B 20 20 20 20 
0383   060F 20 20 20 2A 
0383   0613 20 20 20 20 
0383   0617 2A 20 20 2A 
0383   061B 2A 20 20 20 
0383   061F 20 20 20 20 
0383   0623 20 20 20 20 
0383   0627 20 20 20 20 
0384   062B 31 30 20 20  .TEXT "10               *    *    * *    *   *   *    *       *    *  * *              "
0384   062F 20 20 20 20 
0384   0633 20 20 20 20 
0384   0637 20 20 20 20 
0384   063B 20 2A 20 20 
0384   063F 20 20 2A 20 
0384   0643 20 20 20 2A 
0384   0647 20 2A 20 20 
0384   064B 20 20 2A 20 
0384   064F 20 20 2A 20 
0384   0653 20 20 2A 20 
0384   0657 20 20 20 2A 
0384   065B 20 20 20 20 
0384   065F 20 20 20 2A 
0384   0663 20 20 20 20 
0384   0667 2A 20 20 2A 
0384   066B 20 2A 20 20 
0384   066F 20 20 20 20 
0384   0673 20 20 20 20 
0384   0677 20 20 20 20 
0385   067B 31 31 20 20  .TEXT "11                ****      *     ****     ****         ****   *  *             "
0385   067F 20 20 20 20 
0385   0683 20 20 20 20 
0385   0687 20 20 20 20 
0385   068B 20 20 2A 2A 
0385   068F 2A 2A 20 20 
0385   0693 20 20 20 20 
0385   0697 2A 20 20 20 
0385   069B 20 20 2A 2A 
0385   069F 2A 2A 20 20 
0385   06A3 20 20 20 2A 
0385   06A7 2A 2A 2A 20 
0385   06AB 20 20 20 20 
0385   06AF 20 20 20 20 
0385   06B3 2A 2A 2A 2A 
0385   06B7 20 20 20 2A 
0385   06BB 20 20 2A 20 
0385   06BF 20 20 20 20 
0385   06C3 20 20 20 20 
0385   06C7 20 20 20 20 
0386   06CB 31 32 20 20  .TEXT "12                                                                              "
0386   06CF 20 20 20 20 
0386   06D3 20 20 20 20 
0386   06D7 20 20 20 20 
0386   06DB 20 20 20 20 
0386   06DF 20 20 20 20 
0386   06E3 20 20 20 20 
0386   06E7 20 20 20 20 
0386   06EB 20 20 20 20 
0386   06EF 20 20 20 20 
0386   06F3 20 20 20 20 
0386   06F7 20 20 20 20 
0386   06FB 20 20 20 20 
0386   06FF 20 20 20 20 
0386   0703 20 20 20 20 
0386   0707 20 20 20 20 
0386   070B 20 20 20 20 
0386   070F 20 20 20 20 
0386   0713 20 20 20 20 
0386   0717 20 20 20 20 
0387   071B 31 33 20 20  .TEXT "13              =====================================================           "
0387   071F 20 20 20 20 
0387   0723 20 20 20 20 
0387   0727 20 20 20 20 
0387   072B 3D 3D 3D 3D 
0387   072F 3D 3D 3D 3D 
0387   0733 3D 3D 3D 3D 
0387   0737 3D 3D 3D 3D 
0387   073B 3D 3D 3D 3D 
0387   073F 3D 3D 3D 3D 
0387   0743 3D 3D 3D 3D 
0387   0747 3D 3D 3D 3D 
0387   074B 3D 3D 3D 3D 
0387   074F 3D 3D 3D 3D 
0387   0753 3D 3D 3D 3D 
0387   0757 3D 3D 3D 3D 
0387   075B 3D 3D 3D 3D 
0387   075F 3D 20 20 20 
0387   0763 20 20 20 20 
0387   0767 20 20 20 20 
0388   076B 31 34 20 20  .TEXT "14                                                                              "
0388   076F 20 20 20 20 
0388   0773 20 20 20 20 
0388   0777 20 20 20 20 
0388   077B 20 20 20 20 
0388   077F 20 20 20 20 
0388   0783 20 20 20 20 
0388   0787 20 20 20 20 
0388   078B 20 20 20 20 
0388   078F 20 20 20 20 
0388   0793 20 20 20 20 
0388   0797 20 20 20 20 
0388   079B 20 20 20 20 
0388   079F 20 20 20 20 
0388   07A3 20 20 20 20 
0388   07A7 20 20 20 20 
0388   07AB 20 20 20 20 
0388   07AF 20 20 20 20 
0388   07B3 20 20 20 20 
0388   07B7 20 20 20 20 
0389   07BB 31 35 20 20  .TEXT "15                         VDU TEST V0.1   VT-52 EMULATION                      "
0389   07BF 20 20 20 20 
0389   07C3 20 20 20 20 
0389   07C7 20 20 20 20 
0389   07CB 20 20 20 20 
0389   07CF 20 20 20 20 
0389   07D3 20 20 20 56 
0389   07D7 44 55 20 54 
0389   07DB 45 53 54 20 
0389   07DF 56 30 2E 31 
0389   07E3 20 20 20 56 
0389   07E7 54 2D 35 32 
0389   07EB 20 45 4D 55 
0389   07EF 4C 41 54 49 
0389   07F3 4F 4E 20 20 
0389   07F7 20 20 20 20 
0389   07FB 20 20 20 20 
0389   07FF 20 20 20 20 
0389   0803 20 20 20 20 
0389   0807 20 20 20 20 
0390   080B 31 36 20 20  .TEXT "16                                                                              "
0390   080F 20 20 20 20 
0390   0813 20 20 20 20 
0390   0817 20 20 20 20 
0390   081B 20 20 20 20 
0390   081F 20 20 20 20 
0390   0823 20 20 20 20 
0390   0827 20 20 20 20 
0390   082B 20 20 20 20 
0390   082F 20 20 20 20 
0390   0833 20 20 20 20 
0390   0837 20 20 20 20 
0390   083B 20 20 20 20 
0390   083F 20 20 20 20 
0390   0843 20 20 20 20 
0390   0847 20 20 20 20 
0390   084B 20 20 20 20 
0390   084F 20 20 20 20 
0390   0853 20 20 20 20 
0390   0857 20 20 20 20 
0391   085B 31 37 20 20  .TEXT "17                  **  PRESS ANY KEY TO ENTER TERMINAL MODE **                 "
0391   085F 20 20 20 20 
0391   0863 20 20 20 20 
0391   0867 20 20 20 20 
0391   086B 20 20 20 20 
0391   086F 2A 2A 20 20 
0391   0873 50 52 45 53 
0391   0877 53 20 41 4E 
0391   087B 59 20 4B 45 
0391   087F 59 20 54 4F 
0391   0883 20 45 4E 54 
0391   0887 45 52 20 54 
0391   088B 45 52 4D 49 
0391   088F 4E 41 4C 20 
0391   0893 4D 4F 44 45 
0391   0897 20 2A 2A 20 
0391   089B 20 20 20 20 
0391   089F 20 20 20 20 
0391   08A3 20 20 20 20 
0391   08A7 20 20 20 20 
0392   08AB 31 38 20 20  .TEXT "18                                                                              "
0392   08AF 20 20 20 20 
0392   08B3 20 20 20 20 
0392   08B7 20 20 20 20 
0392   08BB 20 20 20 20 
0392   08BF 20 20 20 20 
0392   08C3 20 20 20 20 
0392   08C7 20 20 20 20 
0392   08CB 20 20 20 20 
0392   08CF 20 20 20 20 
0392   08D3 20 20 20 20 
0392   08D7 20 20 20 20 
0392   08DB 20 20 20 20 
0392   08DF 20 20 20 20 
0392   08E3 20 20 20 20 
0392   08E7 20 20 20 20 
0392   08EB 20 20 20 20 
0392   08EF 20 20 20 20 
0392   08F3 20 20 20 20 
0392   08F7 20 20 20 20 
0393   08FB 31 39 20 20  .TEXT "19                                                                              "
0393   08FF 20 20 20 20 
0393   0903 20 20 20 20 
0393   0907 20 20 20 20 
0393   090B 20 20 20 20 
0393   090F 20 20 20 20 
0393   0913 20 20 20 20 
0393   0917 20 20 20 20 
0393   091B 20 20 20 20 
0393   091F 20 20 20 20 
0393   0923 20 20 20 20 
0393   0927 20 20 20 20 
0393   092B 20 20 20 20 
0393   092F 20 20 20 20 
0393   0933 20 20 20 20 
0393   0937 20 20 20 20 
0393   093B 20 20 20 20 
0393   093F 20 20 20 20 
0393   0943 20 20 20 20 
0393   0947 20 20 20 20 
0394   094B 32 31 20 20  .TEXT "21                                                                              "
0394   094F 20 20 20 20 
0394   0953 20 20 20 20 
0394   0957 20 20 20 20 
0394   095B 20 20 20 20 
0394   095F 20 20 20 20 
0394   0963 20 20 20 20 
0394   0967 20 20 20 20 
0394   096B 20 20 20 20 
0394   096F 20 20 20 20 
0394   0973 20 20 20 20 
0394   0977 20 20 20 20 
0394   097B 20 20 20 20 
0394   097F 20 20 20 20 
0394   0983 20 20 20 20 
0394   0987 20 20 20 20 
0394   098B 20 20 20 20 
0394   098F 20 20 20 20 
0394   0993 20 20 20 20 
0394   0997 20 20 20 20 
0395   099B 32 32 20 20  .TEXT "22                                                                              "
0395   099F 20 20 20 20 
0395   09A3 20 20 20 20 
0395   09A7 20 20 20 20 
0395   09AB 20 20 20 20 
0395   09AF 20 20 20 20 
0395   09B3 20 20 20 20 
0395   09B7 20 20 20 20 
0395   09BB 20 20 20 20 
0395   09BF 20 20 20 20 
0395   09C3 20 20 20 20 
0395   09C7 20 20 20 20 
0395   09CB 20 20 20 20 
0395   09CF 20 20 20 20 
0395   09D3 20 20 20 20 
0395   09D7 20 20 20 20 
0395   09DB 20 20 20 20 
0395   09DF 20 20 20 20 
0395   09E3 20 20 20 20 
0395   09E7 20 20 20 20 
0396   09EB 32 33 20 20  .TEXT "23                                                                              "
0396   09EF 20 20 20 20 
0396   09F3 20 20 20 20 
0396   09F7 20 20 20 20 
0396   09FB 20 20 20 20 
0396   09FF 20 20 20 20 
0396   0A03 20 20 20 20 
0396   0A07 20 20 20 20 
0396   0A0B 20 20 20 20 
0396   0A0F 20 20 20 20 
0396   0A13 20 20 20 20 
0396   0A17 20 20 20 20 
0396   0A1B 20 20 20 20 
0396   0A1F 20 20 20 20 
0396   0A23 20 20 20 20 
0396   0A27 20 20 20 20 
0396   0A2B 20 20 20 20 
0396   0A2F 20 20 20 20 
0396   0A33 20 20 20 20 
0396   0A37 20 20 20 20 
0397   0A3B 32 34 20 20  .TEXT "24                                                                              "
0397   0A3F 20 20 20 20 
0397   0A43 20 20 20 20 
0397   0A47 20 20 20 20 
0397   0A4B 20 20 20 20 
0397   0A4F 20 20 20 20 
0397   0A53 20 20 20 20 
0397   0A57 20 20 20 20 
0397   0A5B 20 20 20 20 
0397   0A5F 20 20 20 20 
0397   0A63 20 20 20 20 
0397   0A67 20 20 20 20 
0397   0A6B 20 20 20 20 
0397   0A6F 20 20 20 20 
0397   0A73 20 20 20 20 
0397   0A77 20 20 20 20 
0397   0A7B 20 20 20 20 
0397   0A7F 20 20 20 20 
0397   0A83 20 20 20 20 
0397   0A87 20 20 20 20 
0398   0A8B              
0399   0A8B             
0400   0A8B             ;__VDU_WREG________________________________________________________________________________________
0401   0A8B             ;
0402   0A8B             ; 	WRITE VALUE IN A TO REGISTER IN B
0403   0A8B             ;	B: REGISTER TO UPDATE
0404   0A8B             ;	A: VALUE TO WRITE
0405   0A8B             ;__________________________________________________________________________________________________			
0406   0A8B             VDU_WREG:
0407   0A8B F5          	PUSH 	AF			; STORE AF
0408   0A8C             VDU_WREG_1:	
0409   0A8C DB E4       	IN 	A,(M8563Status)         ; read address/status register
0410   0A8E CB 7F           	BIT 	7,A             	; if bit 7 = 1 than an update strobe has been occured
0411   0A90 28 FA           	JR 	Z,VDU_WREG_1	  	; wait for ready
0412   0A92 78          	LD	A,B			;
0413   0A93 D3 E4              	OUT 	(M8563Register),A      	; select register 
0414   0A95             VDU_WREG_2:	
0415   0A95 DB E4       	IN 	A,(M8563Status)         ; read address/status register
0416   0A97 CB 7F           	BIT 	7,A             	; if bit 7 = 1 than an update strobe has been occured
0417   0A99 28 FA           	JR 	Z,VDU_WREG_2	  	; wait for ready
0418   0A9B F1          	POP	AF			;
0419   0A9C D3 E5              	OUT 	(M8563Data),A      	; PUT DATA
0420   0A9E C9              	RET
0421   0A9F             
0422   0A9F             
0423   0A9F             ;__VDU_GREG________________________________________________________________________________________
0424   0A9F             ;
0425   0A9F             ; 	GET VALUE FROM REGISTER IN B PLACE IN A
0426   0A9F             ;	B: REGISTER TO GET
0427   0A9F             ;	A: VALUE 
0428   0A9F             ;__________________________________________________________________________________________________			
0429   0A9F             VDU_GREG:
0430   0A9F DB E4       	IN 	A,(M8563Status)         ; read address/status register
0431   0AA1 CB 7F           	BIT 	7,A             	; if bit 7 = 1 than an update strobe has been occured
0432   0AA3 28 FA           	JR 	Z,VDU_GREG	  	; wait for ready
0433   0AA5 78          	LD	A,B			;
0434   0AA6 D3 E4              	OUT 	(M8563Register) , A    	; select register 
0435   0AA8             VDU_GREG_1:	
0436   0AA8 DB E4       	IN 	A,(M8563Status)         ; read address/status register
0437   0AAA CB 7F           	BIT 	7,A             	; if bit 7 = 1 than an update strobe has been occured
0438   0AAC 28 FA           	JR 	Z,VDU_GREG_1	  	; wait for ready
0439   0AAE DB E5              	IN 	A,(M8563Data)       	; GET DATA 
0440   0AB0 C9              	RET
0441   0AB1             
0442   0AB1             
0443   0AB1             
0444   0AB1             VDU_Init8563:
0445   0AB1 7E 50 66 49     .DB		126,80,102,73,32,224,25,29,252,231,160,231,0,0,7,128
0445   0AB5 20 E0 19 1D 
0445   0AB9 FC E7 A0 E7 
0445   0ABD 00 00 07 80 
0446   0AC1 12 17 0F D0     .DB		18,23,15,208,8,32,120,232,32,71,240,0,47,231,79,7,15,208,125,100,245	
0446   0AC5 08 20 78 E8 
0446   0AC9 20 47 F0 00 
0446   0ACD 2F E7 4F 07 
0446   0AD1 0F D0 7D 64 
0446   0AD5 F5 
0447   0AD6              
0448   0AD6             ;__VDU_CRTInit_____________________________________________________________________________________
0449   0AD6             ;
0450   0AD6             ; 	INIT VDU CHIP
0451   0AD6             ;__________________________________________________________________________________________________			   	
0452   0AD6             VDU_CRTInit:
0453   0AD6 F5              	PUSH 	AF			; STORE AF
0454   0AD7 C5              	PUSH 	BC			; STORE BC
0455   0AD8 E5              	PUSH 	HL			; STORE HL
0456   0AD9                 	
0457   0AD9 06 00           	LD 	B,$00	        	; B = 0 
0458   0ADB 21 B1 0A        	LD 	HL,VDU_Init8563  	; HL = pointer to the default values
0459   0ADE AF              	XOR 	A               	; A = 0
0460   0ADF             VDU_CRTInitLoop:
0461   0ADF 7E          	LD	A,(HL)			; GET VALUE
0462   0AE0 CD 8B 0A    	CALL	VDU_WREG		; WRITE IT
0463   0AE3 23          	INC	HL
0464   0AE4 04          	INC	B			; 
0465   0AE5 78          	LD	A,B			;
0466   0AE6 FE 25       	CP	37			;
0467   0AE8 20 F5       	JR	NZ,VDU_CRTInitLoop	; LOOP UNTIL DONE
0468   0AEA E1              	POP 	HL			; RESTORE HL
0469   0AEB C1              	POP	BC			; RESTORE BC
0470   0AEC F1              	POP	AF			; RESTORE AF
0471   0AED C9              	RET
0472   0AEE             
0473   0AEE             
0474   0AEE             ;__VDU_CursorOn____________________________________________________________________________________
0475   0AEE             ;
0476   0AEE             ; 	TURN ON CURSOR
0477   0AEE             ;__________________________________________________________________________________________________			   	
0478   0AEE             VDU_CursorOn:
0479   0AEE F5              	PUSH 	AF			; STORE AF
0480   0AEF 3E 60           	LD 	A, $60			; SET CURSOR VALUE
0481   0AF1 C3 F7 0A        	JP 	VDU_CursorSet		;
0482   0AF4             
0483   0AF4             ;__VDU_CursorOff___________________________________________________________________________________
0484   0AF4             ;
0485   0AF4             ; 	TURN OFF CURSOR
0486   0AF4             ;__________________________________________________________________________________________________			   	   	
0487   0AF4             VDU_CursorOff:
0488   0AF4 F5              	PUSH 	AF			; STORE AF
0489   0AF5 3E 20           	LD 	A, $20			; SET CURSOR VALUE
0490   0AF7             VDU_CursorSet:
0491   0AF7 C5          	PUSH 	BC			; STORE BC
0492   0AF8 06 0A       	LD	B,10
0493   0AFA CD 8B 0A    	CALL	VDU_WREG		; WRITE IT
0494   0AFD C1              	POP 	BC			; RESTORE BC
0495   0AFE F1              	POP 	AF			; RESTORE AF
0496   0AFF C9              	RET
0497   0B00             
0498   0B00             ;__GOTO_XY_________________________________________________________________________________________
0499   0B00             ;
0500   0B00             ; 	MOVE CURSOR TO POSITON IN TERM_X AND TERM_Y
0501   0B00             ;__________________________________________________________________________________________________			
0502   0B00             GOTO_XY:
0503   0B00 F5          	PUSH	AF			; STORE AF
0504   0B01             
0505   0B01 3A EF 2E    	LD	A,(TERM_Y)		; PLACE Y COORD IN A
0506   0B04 FE 18       	CP	24			; IS 24?
0507   0B06 CA 45 01    	JP	Z,DO_SCROLLE1		; YES, MUST SCROLL
0508   0B09             
0509   0B09 C5              	PUSH 	BC			; STORE BC
0510   0B0A D5              	PUSH 	DE			; STORE DE
0511   0B0B 3A EE 2E    	LD	A,(TERM_X)		;
0512   0B0E 67          	LD	H,A			;
0513   0B0F 3A EF 2E        	LD	A,(TERM_Y)		;
0514   0B12 6F              	LD	L,A			;    	
0515   0B13 E5              	PUSH 	HL			; STORE HL
0516   0B14 47              	LD 	B, A             	; B = Y COORD
0517   0B15 11 50 00        	LD 	DE, 80			; MOVE LINE LENGTH INTO DE
0518   0B18 21 00 00        	LD 	HL, 0			; MOVE 0 INTO HL
0519   0B1B 78              	LD 	A, B             	; A=B
0520   0B1C FE 00           	CP 	0			; Y=0?
0521   0B1E CA 24 0B        	JP 	Z, VDU_YLoopEnd  	; THEN DO NOT MULTIPLY BY 80
0522   0B21             VDU_YLoop:              		; HL = 80 * Y
0523   0B21 19              	ADD 	HL, DE			; HL=HL+DE
0524   0B22 10 FD           	DJNZ 	VDU_YLoop		; LOOP 
0525   0B24             VDU_YLoopEnd:				;
0526   0B24 D1              	POP 	DE              	; DE = org HL
0527   0B25 5A              	LD 	E, D             	; E = X
0528   0B26 16 00           	LD 	D, 0             	; D = 0
0529   0B28 19              	ADD 	HL, DE          	; HL = HL + X
0530   0B29 22 F1 2E        	LD 	(VDU_DisplayPos), HL	;
0531   0B2C E5          	PUSH	HL			;
0532   0B2D D1          	POP	DE			;
0533   0B2E 2A F3 2E    	LD	HL,(VDU_DISPLAY_START)	;
0534   0B31 19          	ADD	HL,DE			;    		
0535   0B32 06 12           	LD 	B, 18			; SET UPDATE ADDRESS IN VDU
0536   0B34 7C              	LD	A,H			;
0537   0B35 CD 8B 0A        	CALL	VDU_WREG		; WRITE IT
0538   0B38 06 13           	LD 	B, 19			; SET UPDATE ADDRESS IN VDU
0539   0B3A 7D              	LD	A,L			;
0540   0B3B CD 8B 0A        	CALL	VDU_WREG		; WRITE IT
0541   0B3E                 	
0542   0B3E 06 0E           	LD 	B, 14			; SET UPDATE CSR POS IN VDU
0543   0B40 7C              	LD	A,H			;
0544   0B41 CD 8B 0A        	CALL	VDU_WREG		; WRITE IT
0545   0B44 06 0F           	LD 	B, 15			; SET UPDATE CSR POS IN VDU
0546   0B46 7D              	LD	A,L			;
0547   0B47 CD 8B 0A        	CALL	VDU_WREG		; WRITE IT
0548   0B4A D1              	POP 	DE			; RESTORE DE
0549   0B4B C1             	POP 	BC			; RESTORE BC
0550   0B4C F1              	POP 	AF			; RESTORE AF
0551   0B4D C9              	RET
0552   0B4E             
0553   0B4E             ;__VDU_PutChar______________________________________________________________________________________
0554   0B4E             ;
0555   0B4E             ; 	PLACE CHARACTER ON SCREEN
0556   0B4E             ;	A: CHARACTER TO OUTPUT
0557   0B4E             ;	C: COLOR
0558   0B4E             ;__________________________________________________________________________________________________			   	   	
0559   0B4E             VDU_PutChar:
0560   0B4E D5          	PUSH	DE			; STORE DE
0561   0B4F F5              	PUSH 	AF			; STORE AF
0562   0B50 E5              	PUSH	HL			; STORE HL
0563   0B51 57              	LD	D,A			; STORE CHAR IN D
0564   0B52 3A EE 2E        	LD	A,(TERM_X)		; PLACE X COORD IN A
0565   0B55 3C              	INC	A			; INC X COORD
0566   0B56 32 EE 2E        	LD	(TERM_X),A		; STORE IN A
0567   0B59 FE 50           	CP	80			; IS 80?
0568   0B5B C2 6F 0B        	JP	NZ,VDU_PutChar1		; NO, PLACE CHAR ON DISPLAY
0569   0B5E 3E 00           	LD  	A,0			; YES, WRAP TO NEXT LINE
0570   0B60 32 EE 2E        	LD	(TERM_X),A		; STORE X
0571   0B63 3A EF 2E        	LD	A,(TERM_Y)		; A= Y COORD
0572   0B66 3C              	INC 	A			; INC Y COORD
0573   0B67 32 EF 2E        	LD	(TERM_Y),A		; STORE Y
0574   0B6A FE 18           	CP	24			; IS PAST END OF SCREEN?
0575   0B6C CC 00 0B        	CALL 	Z,GOTO_XY        	; YES, HANDLE SCROLLING
0576   0B6F             VDU_PutChar1:				;
0577   0B6F             					;
0578   0B6F 2A F1 2E        	LD 	HL, (VDU_DisplayPos)	; GET CURRENT DISPLAY ADDRESS
0579   0B72 06 12           	LD 	B, 18			; SET UPDATE CSR POS IN VDU
0580   0B74 7C              	LD	A,H			;
0581   0B75 CD 8B 0A        	CALL	VDU_WREG		; WRITE IT
0582   0B78 06 13           	LD 	B, 19			; SET UPDATE CSR POS IN VDU
0583   0B7A 7D              	LD	A,L			;
0584   0B7B CD 8B 0A        	CALL	VDU_WREG		; WRITE IT   	
0585   0B7E 7A                 	LD	A,D			; RESTORE CHAR
0586   0B7F 06 1F           	LD	B,31			;
0587   0B81 CD 8B 0A        	CALL	VDU_WREG		; WRITE IT
0588   0B84 E5          	PUSH	HL			;
0589   0B85 11 20 08    	LD	DE,$0820		;
0590   0B88 19              	ADD    	HL,DE			;
0591   0B89 06 12           	LD 	B, 18			; SET UPDATE CSR POS IN VDU
0592   0B8B 7C              	LD	A,H			;
0593   0B8C CD 8B 0A        	CALL	VDU_WREG		; WRITE IT
0594   0B8F 06 13           	LD 	B, 19			; SET UPDATE CSR POS IN VDU
0595   0B91 7D              	LD	A,L			;
0596   0B92 CD 8B 0A        	CALL	VDU_WREG		; WRITE IT   	
0597   0B95 79                 	LD	A,C			; GET COLOR
0598   0B96 06 1F           	LD	B,31			;
0599   0B98 CD 8B 0A        	CALL	VDU_WREG		; WRITE IT
0600   0B9B E1          	POP	HL			; RESTORE ADDRESS
0601   0B9C 23              	INC 	HL			; INCREMENT IT
0602   0B9D 22 F1 2E        	LD 	(VDU_DisplayPos), HL	; STORE CURRENT DISPLAY ADDRESS
0603   0BA0 E5              	PUSH	HL			; MOVE HL TO DE
0604   0BA1 D1              	POP	DE			;
0605   0BA2 2A F3 2E        	LD	HL,(VDU_DISPLAY_START)	;
0606   0BA5 19              	ADD	HL,DE			;    	
0607   0BA6 06 0E           	LD 	B, 14			; SET UPDATE CSR POS IN VDU
0608   0BA8 7C              	LD	A,H			;
0609   0BA9 CD 8B 0A        	CALL	VDU_WREG		; WRITE IT
0610   0BAC 06 0F           	LD 	B, 15			; SET UPDATE CSR POS IN VDU
0611   0BAE 7D              	LD	A,L			;
0612   0BAF CD 8B 0A        	CALL	VDU_WREG		; WRITE IT
0613   0BB2                 	
0614   0BB2 E1              	POP 	HL			; RESTORE HL
0615   0BB3 F1              	POP 	AF			; RESTORE AF
0616   0BB4 D1              	POP	DE			; RESTORE DE
0617   0BB5 C9              	RET
0618   0BB6             
0619   0BB6             VDU_PutCharRAW:	
0620   0BB6 C5          	PUSH	BC			;
0621   0BB7 57          	LD	D,A			;
0622   0BB8 2A F1 2E        	LD 	HL, (VDU_DisplayPos)	; GET CURRENT DISPLAY ADDRESS
0623   0BBB 06 12           	LD 	B, 18			; SET UPDATE CSR POS IN VDU
0624   0BBD 7C              	LD	A,H			;
0625   0BBE CD 8B 0A        	CALL	VDU_WREG		; WRITE IT
0626   0BC1 06 13           	LD 	B, 19			; SET UPDATE CSR POS IN VDU
0627   0BC3 7D              	LD	A,L			;
0628   0BC4 CD 8B 0A        	CALL	VDU_WREG		; WRITE IT   	
0629   0BC7 7A                 	LD	A,D			; RESTORE CHAR
0630   0BC8 06 1F           	LD	B,31			;
0631   0BCA CD 8B 0A        	CALL	VDU_WREG		; WRITE IT
0632   0BCD E5          	PUSH	HL			;
0633   0BCE 11 20 08    	LD	DE,$0820		;
0634   0BD1 19              	ADD    	HL,DE			;
0635   0BD2 06 12           	LD 	B, 18			; SET UPDATE CSR POS IN VDU
0636   0BD4 7C              	LD	A,H			;
0637   0BD5 CD 8B 0A        	CALL	VDU_WREG		; WRITE IT
0638   0BD8 06 13           	LD 	B, 19			; SET UPDATE CSR POS IN VDU
0639   0BDA 7D              	LD	A,L			;
0640   0BDB CD 8B 0A        	CALL	VDU_WREG		; WRITE IT   	
0641   0BDE 79                 	LD	A,C			; GET COLOR
0642   0BDF 06 1F           	LD	B,31			;
0643   0BE1 CD 8B 0A        	CALL	VDU_WREG		; WRITE IT
0644   0BE4 E1          	POP	HL			; RESTORE ADDRESS
0645   0BE5 23              	INC 	HL			; INCREMENT IT
0646   0BE6 22 F1 2E        	LD 	(VDU_DisplayPos), HL	; STORE CURRENT DISPLAY ADDRESS
0647   0BE9 C1              	POP	BC
0648   0BEA C9          	RET
0649   0BEB             	   	
0650   0BEB             ;__VDU_LOADFONT____________________________________________________________________________________
0651   0BEB             ;
0652   0BEB             ; 	LOAD SCREEN FONT
0653   0BEB             ;__________________________________________________________________________________________________			   	   	
0654   0BEB             VDU_LOADFONT:
0655   0BEB F5          	PUSH 	AF
0656   0BEC C5          	PUSH	BC
0657   0BED             	
0658   0BED 21 00 20    	LD	HL,$2000		; SET FONT LOCATION
0659   0BF0             					;
0660   0BF0 06 12          	LD 	B, 18			; SET UPDATE ADDRESS IN VDU
0661   0BF2 7C              	LD	A,H			;
0662   0BF3 CD 8B 0A        	CALL	VDU_WREG		; WRITE IT
0663   0BF6 06 13           	LD 	B, 19			; SET UPDATE ADDRESS IN VDU
0664   0BF8 7D              	LD	A,L			;
0665   0BF9 CD 8B 0A        	CALL	VDU_WREG		; WRITE IT
0666   0BFC             
0667   0BFC 06 00           	LD	B,$00			; FONT SIZE
0668   0BFE 0E 20           	LD	C,$20			; FONT SIZE
0669   0C00 21 EC 0E    	LD	HL,FONT			; FONT DATA
0670   0C03             VDU_LOADFONT_LOOP:
0671   0C03 DB E4       	IN 	A,(M8563Status)         ; read address/status register
0672   0C05 CB 7F           	BIT 	7,A             	; if bit 7 = 1 than an update strobe has been occured
0673   0C07 28 FA           	JR 	Z,VDU_LOADFONT_LOOP  	; wait for ready
0674   0C09 3E 1F       	LD	A,31			;
0675   0C0B D3 E4              	OUT 	(M8563Register) , A    	; select register 
0676   0C0D             VDU_LOADFONT_LOOP_1:	
0677   0C0D DB E4       	IN 	A,(M8563Status)         ; read address/status register
0678   0C0F CB 7F           	BIT 	7,A             	; if bit 7 = 1 than an update strobe has been occured
0679   0C11 28 FA           	JR 	Z,VDU_LOADFONT_LOOP_1  	; wait for ready
0680   0C13 7E          	LD	A,(HL)			;
0681   0C14 D3 E5              	OUT 	(M8563Data) , A      	; PUT DATA
0682   0C16 23                 	INC	HL
0683   0C17 10 EA              	DJNZ	VDU_LOADFONT_LOOP	;
0684   0C19 0D          	DEC	C			;
0685   0C1A C2 03 0C    	JP	NZ,VDU_LOADFONT_LOOP	;	
0686   0C1D C1                 	POP	BC
0687   0C1E F1                 	POP	AF
0688   0C1F C9                 	RET    		
0689   0C20             
0690   0C20             ;__KB_INITIALIZE___________________________________________________________________________________
0691   0C20             ;
0692   0C20             ; 	INIT KEYBOARD CONTROLLER
0693   0C20             ;__________________________________________________________________________________________________
0694   0C20             KB_INITIALIZE:	
0695   0C20 0E A7       	LD	C,0a7H			;
0696   0C22 CD 35 0C    	CALL	I8242CommandPut		;
0697   0C25 0E AE       	LD	C,0aeH			;
0698   0C27 CD 35 0C    	CALL	I8242CommandPut		;
0699   0C2A 0E AA       	LD	C,0aaH			;
0700   0C2C CD 35 0C    	CALL	I8242CommandPut		;
0701   0C2F 3E 00       	LD	A,0			; EMPTY KB QUEUE
0702   0C31 32 09 2F    	LD	(KB_QUEUE_PTR),A	; 
0703   0C34 C9          	RET
0704   0C35             
0705   0C35             ;__I8242CommandPut_________________________________________________________________________________
0706   0C35             ;
0707   0C35             ; 	WRITE VALUE IN A TO 8242
0708   0C35             ;	C: VALUE TO WRITE
0709   0C35             ;__________________________________________________________________________________________________	
0710   0C35             I8242CommandPut:
0711   0C35 DB E3       	IN 	A,(I8242Status)         ; read status register
0712   0C37 CB 4F           	BIT 	1,A             	; if bit 1 = 1 
0713   0C39 20 FA           	JR 	NZ,I8242CommandPut  	; wait for ready
0714   0C3B 79          	LD	A,C			;
0715   0C3C D3 E3              	OUT 	(I8242Command),A      	; select register 
0716   0C3E C9          	RET
0717   0C3F             
0718   0C3F             ;__WAIT_KBHIT______________________________________________________________________________________
0719   0C3F             ;
0720   0C3F             ; 	WAIT FOR A KEY PRESS
0721   0C3F             ;__________________________________________________________________________________________________			
0722   0C3F             WAIT_KBHIT:
0723   0C3F CD 75 0C    	CALL 	KB_PROCESS		; call keyboard routine
0724   0C42 3A 09 2F    	LD	A,(KB_QUEUE_PTR)	; IS QUEUE EMPTY?
0725   0C45 B7          	OR 	A			; set flags
0726   0C46 CA 3F 0C    	JP 	Z,WAIT_KBHIT		; if no keys waiting, try again
0727   0C49 C9          	RET
0728   0C4A             	
0729   0C4A             ;__IS_KBHIT________________________________________________________________________________________
0730   0C4A             ;
0731   0C4A             ; 	WAS A KEY PRESSED?
0732   0C4A             ;__________________________________________________________________________________________________			
0733   0C4A             IS_KBHIT:
0734   0C4A CD 75 0C    	CALL 	KB_PROCESS		; call keyboard routine
0735   0C4D 3A 09 2F    	LD 	A,(KB_QUEUE_PTR)	; ask if keyboard has key waiting
0736   0C50 C9          	RET
0737   0C51             	
0738   0C51             				
0739   0C51             ;__GET_KEY_________________________________________________________________________________________
0740   0C51             ;
0741   0C51             ; 	GET KEY PRESS VALUE
0742   0C51             ;__________________________________________________________________________________________________			
0743   0C51             GET_KEY:
0744   0C51 CD 3F 0C    	CALL	WAIT_KBHIT		; WAIT FOR A KEY
0745   0C54 3A 09 2F    	LD	A,(KB_QUEUE_PTR)	; GET QUEUE POINTER
0746   0C57 B7          	OR	A			;
0747   0C58 C8          	RET	Z			; ABORT IF QUEUE EMPTY
0748   0C59 C5          	PUSH	BC			; STORE BC
0749   0C5A 47          	LD	B,A			; STORE QUEUE COUNT FOR LATER
0750   0C5B E5          	PUSH	HL			; STORE HL
0751   0C5C 3A F9 2E    	LD	A,(KB_QUEUE)		; GET TOP BYTE FROM QUEUE
0752   0C5F F5          	PUSH 	AF			; STORE IT
0753   0C60 21 F9 2E    	LD	HL,KB_QUEUE		; GET POINTER TO QUEUE
0754   0C63             GET_KEY_LOOP:				;
0755   0C63 23          	INC	HL			; POINT TO NEXT VALUE IN QUEUE
0756   0C64 7E          	LD	A,(HL)			; GET VALUE
0757   0C65 2B          	DEC 	HL			;
0758   0C66 77          	LD	(HL),A			; MOVE IT UP ONE
0759   0C67 23          	INC	HL			;
0760   0C68 10 F9       	DJNZ	GET_KEY_LOOP		; LOOP UNTIL DONE
0761   0C6A 3A 09 2F    	LD	A,(KB_QUEUE_PTR)	; DECREASE QUEUE POINTER BY ONE	
0762   0C6D 3D          	DEC	A			;
0763   0C6E 32 09 2F    	LD	(KB_QUEUE_PTR),A	;
0764   0C71 F1          	POP	AF			; RESTORE VALUE
0765   0C72 E1          	POP	HL			; RESTORE HL
0766   0C73 C1          	POP	BC			; RESTORE BC
0767   0C74 C9          	RET		
0768   0C75             	
0769   0C75             
0770   0C75             ;__KB_PROCESS______________________________________________________________________________________
0771   0C75             ;
0772   0C75             ;  a=0 if want to know if a byte is available, and a=1 to ask for the byte
0773   0C75             ;__________________________________________________________________________________________________			   	   	
0774   0C75             KB_PROCESS:	
0775   0C75 DB E3       	IN 	A,(I8242Status)         ; read status register
0776   0C77 CB 47           	BIT 	0,A             	; if bit 0 = 0 
0777   0C79 C8              	RET 	Z		 	; EXIT
0778   0C7A DB E2       	IN	A,(I8242Data)		; GET BYTE
0779   0C7C CD 8A 0C    	call 	KB_decodechar		; returns char or 0 for things like keyup, some return directly to cp/m
0780   0C7F C9          	ret				; return to cp/m
0781   0C80             
0782   0C80             ;__KB_waitbyte______________________________________________________________________________________
0783   0C80             ;
0784   0C80             ;  WAIT FOR byte TO BE available
0785   0C80             ;__________________________________________________________________________________________________			   	   	
0786   0C80             KB_waitbyte:	
0787   0C80 DB E3       	IN 	A,(I8242Status)         ; read status register
0788   0C82 CB 47           	BIT 	0,A             	; if bit 0 = 0 
0789   0C84 CA 80 0C        	jp 	Z,KB_waitbyte		; LOOP
0790   0C87 DB E2           	IN	A,(I8242Data)		; GET BYTE
0791   0C89 C9          	RET
0792   0C8A             
0793   0C8A             
0794   0C8A             	
0795   0C8A             ;__KB_decodechar____________________________________________________________________________________
0796   0C8A             ;
0797   0C8A             ; decode character pass a and prints out the char
0798   0C8A             ; on the LCD screen
0799   0C8A             ;__________________________________________________________________________________________________			   	   	
0800   0C8A             KB_decodechar:
0801   0C8A FE 00       	cp	0		; is it zero
0802   0C8C C8          	ret	z		; return if a zero - no need to do anything
0803   0C8D             
0804   0C8D 4F          	ld 	c,a		;
0805   0C8E FE AA       	cp	0AAh		; shift (down, because up would be trapped by 0F above)
0806   0C90 CA C4 0D    	jp 	z,shiftup	;
0807   0C93 FE B6       	cp	0B6h		; other shift key
0808   0C95 CA C4 0D    	jp 	z,shiftup	;
0809   0C98 FE 9D       	cp	9Dh		; control key
0810   0C9A CA 9D 0D    	jp 	z,controlup	;
0811   0C9D E6 80       	AND 	80H             ; if bit 7 = 1 
0812   0C9F C0          	RET 	nz		; ignore char up
0813   0CA0 79          	ld 	a,C		;
0814   0CA1 FE E0       	cp 	0E0h		; TWO BYTE
0815   0CA3 CA DC 0C    	JP	Z,twobyte	;
0816   0CA6 FE 3A       	cp 	03Ah		; caps lock so toggle
0817   0CA8 CA B1 0D    	jp 	z,capstog	;
0818   0CAB FE 2A       	cp	2Ah		; shift (down, because up would be trapped by 0F above)
0819   0CAD CA BC 0D    	jp 	z,shiftdown	;
0820   0CB0 FE 36       	cp	36h		; other shift key
0821   0CB2 CA BC 0D    	jp 	z,shiftdown	;
0822   0CB5 FE 1D       	cp	01Dh		; control key
0823   0CB7 CA 95 0D    	jp 	z,controldown	;
0824   0CBA 4F          	ld 	c,a		;
0825   0CBB 06 00       	ld 	b,0		; add bc to hl
0826   0CBD 21 EC 0D    	ld 	hl,normalkeys	; offset to add
0827   0CC0 09          	add 	hl,bc		;	
0828   0CC1 3A F6 2E    	ld 	a,(ctrl)	;
0829   0CC4 FE 00       	cp 	0		; is control being held down?
0830   0CC6 28 06       	jR	z,dc1		; no so go back to test caps lock on
0831   0CC8 7E          	ld	a,(hl)		; get the letter, should be smalls 
0832   0CC9 D6 60       	sub	96		; a=97 so subtract 96 a=1=^A
0833   0CCB C3 CC 0D    	JP	KB_ENQUEUE	; STORE ON KB QUEUE
0834   0CCE 3A F5 2E    dc1:	ld 	a,(capslock)	;
0835   0CD1 FE 00       	cp 	0		; is it 0, if so then don't add the caps offset
0836   0CD3 28 03       	jr 	z,dc2		;
0837   0CD5 0E 80       	ld 	c,080h		; add another 50h to smalls to get caps
0838   0CD7 09          	add 	hl,bc		;
0839   0CD8 7E          dc2:	ld 	a,(hl)		;
0840   0CD9 C3 CC 0D    	JP	KB_ENQUEUE	; STORE ON KB QUEUE
0841   0CDC             twobyte:; already got EO so get the next character
0842   0CDC CD 80 0C    	call 	KB_waitbyte
0843   0CDF FE 53       	cp	053h		; delete
0844   0CE1 CA AB 0D    	jp	z,deletekey	;
0845   0CE4 FE 1C       	cp	01Ch		; return on number pad
0846   0CE6 CA A5 0D    	jp	z,returnkey	;
0847   0CE9 FE 50       	cp	050h		;
0848   0CEB CA 39 0D    	jp	z,downarrow	;
0849   0CEE FE 4D       	cp	04Dh		;
0850   0CF0 CA 44 0D    	jp	z,rightarrow	;
0851   0CF3 FE 4B       	cp	04Bh		;
0852   0CF5 CA 4F 0D    	jp	z,leftarrow	;
0853   0CF8 FE 48       	cp	048h		;
0854   0CFA CA 5A 0D    	jp	z,uparrow	;
0855   0CFD FE 52       	cp	052h		;
0856   0CFF CA 65 0D    	jp	z,insert	;
0857   0D02 FE 49       	cp	049h		;
0858   0D04 CA 75 0D    	jp	z,pageup	;
0859   0D07 FE 51       	cp	051h		;
0860   0D09 CA 85 0D    	jp	z,pagedown	;
0861   0D0C FE 47       	cp	047h		;
0862   0D0E CA 19 0D    	jp	z,home		;
0863   0D11 FE 4F       	cp	04Fh		;
0864   0D13 CA 29 0D    	jp	z,end		;
0865   0D16 3E 00       	ld 	a,0		; returns nothing
0866   0D18 C9          	ret
0867   0D19             home:				;
0868   0D19 3E 1B       	ld	a,1BH		; ESC
0869   0D1B CD CC 0D    	CALL	KB_ENQUEUE	; STORE ON KB QUEUE
0870   0D1E 3E 3F       	ld	a,'?'		; ?
0871   0D20 CD CC 0D    	CALL	KB_ENQUEUE	; STORE ON KB QUEUE
0872   0D23 3E 77       	ld	a,'w'		; w
0873   0D25 CD CC 0D    	CALL	KB_ENQUEUE	; STORE ON KB QUEUE
0874   0D28 C9          	ret			;
0875   0D29             end:				;
0876   0D29 3E 1B       	ld	a,1BH		; ESC
0877   0D2B CD CC 0D    	CALL	KB_ENQUEUE	; STORE ON KB QUEUE
0878   0D2E 3E 3F       	ld	a,'?'		; ?
0879   0D30 CD CC 0D    	CALL	KB_ENQUEUE	; STORE ON KB QUEUE
0880   0D33 3E 71       	ld	a,'q'		; q
0881   0D35 CD CC 0D    	CALL	KB_ENQUEUE	; STORE ON KB QUEUE
0882   0D38 C9          	ret			;
0883   0D39             downarrow:			;
0884   0D39 3E 1B       	ld	a,1BH		; ESC
0885   0D3B CD CC 0D    	CALL	KB_ENQUEUE	; STORE ON KB QUEUE
0886   0D3E 3E 42       	ld	a,'B'		; B
0887   0D40 CD CC 0D    	CALL	KB_ENQUEUE	; STORE ON KB QUEUE
0888   0D43 C9          	ret			;
0889   0D44             rightarrow:			;
0890   0D44 3E 1B       	ld	a,1BH		; ESC
0891   0D46 CD CC 0D    	CALL	KB_ENQUEUE	; STORE ON KB QUEUE
0892   0D49 3E 43       	ld	a,'C'		; C
0893   0D4B CD CC 0D    	CALL	KB_ENQUEUE	; STORE ON KB QUEUE
0894   0D4E C9          	ret			;
0895   0D4F             leftarrow:			;
0896   0D4F 3E 1B       	ld	a,1BH		; ESC
0897   0D51 CD CC 0D    	CALL	KB_ENQUEUE	; STORE ON KB QUEUE
0898   0D54 3E 44       	ld	a,'D'		; D
0899   0D56 CD CC 0D    	CALL	KB_ENQUEUE	; STORE ON KB QUEUE
0900   0D59 C9          	ret			;
0901   0D5A             uparrow:			;
0902   0D5A 3E 1B       	ld	a,1BH		; ESC
0903   0D5C CD CC 0D    	CALL	KB_ENQUEUE	; STORE ON KB QUEUE
0904   0D5F 3E 41       	ld 	a,'A'		; A
0905   0D61 CD CC 0D    	CALL	KB_ENQUEUE	; STORE ON KB QUEUE
0906   0D64 C9          	ret			;	
0907   0D65             insert:				;
0908   0D65 3E 1B       	ld	a,1BH		; ESC
0909   0D67 CD CC 0D    	CALL	KB_ENQUEUE	; STORE ON KB QUEUE
0910   0D6A 3E 3F       	ld	a,'?'		; ?
0911   0D6C CD CC 0D    	CALL	KB_ENQUEUE	; STORE ON KB QUEUE
0912   0D6F 3E 70       	ld	a,'p'		; p
0913   0D71 CD CC 0D    	CALL	KB_ENQUEUE	; STORE ON KB QUEUE
0914   0D74 C9          	ret			;
0915   0D75             pageup:				;
0916   0D75 3E 1B       	ld	a,1BH		; ESC
0917   0D77 CD CC 0D    	CALL	KB_ENQUEUE	; STORE ON KB QUEUE
0918   0D7A 3E 3F       	ld	a,'?'		; ?
0919   0D7C CD CC 0D    	CALL	KB_ENQUEUE	; STORE ON KB QUEUE
0920   0D7F 3E 79       	ld	a,'y'		; y
0921   0D81 CD CC 0D    	CALL	KB_ENQUEUE	; STORE ON KB QUEUE
0922   0D84 C9          	ret			;
0923   0D85             pagedown:			;
0924   0D85 3E 1B       	ld	a,1BH		; ESC
0925   0D87 CD CC 0D    	CALL	KB_ENQUEUE	; STORE ON KB QUEUE
0926   0D8A 3E 3F       	ld	a,'?'		; ?
0927   0D8C CD CC 0D    	CALL	KB_ENQUEUE	; STORE ON KB QUEUE
0928   0D8F 3E 73       	ld	a,'s'		; s
0929   0D91 CD CC 0D    	CALL	KB_ENQUEUE	; STORE ON KB QUEUE
0930   0D94 C9          	ret			;
0931   0D95             controldown:			; same code as shiftdown but diff location
0932   0D95 3E FF       	ld 	a,0ffh		;
0933   0D97 32 F6 2E    	ld	(ctrl),a	; control down
0934   0D9A 3E 00       	ld	a,0		;
0935   0D9C C9          	ret			;
0936   0D9D             controlup:			; control key up see shift for explanation
0937   0D9D 3E 00       	ld	a,0		;
0938   0D9F 32 F6 2E    	ld 	(ctrl),a	;
0939   0DA2 3E 00       	ld 	a,0		;
0940   0DA4 C9          	ret			;
0941   0DA5             returnkey:			;
0942   0DA5 3E 0D       	ld 	a,13		;
0943   0DA7 CD CC 0D    	CALL	KB_ENQUEUE	; STORE ON KB QUEUE
0944   0DAA C9          	ret			;
0945   0DAB             deletekey:			;
0946   0DAB 3E 7F       	ld 	a,07fh		; delete key value that cp/m uses
0947   0DAD CD CC 0D    	CALL	KB_ENQUEUE	; STORE ON KB QUEUE
0948   0DB0 C9          	ret			;
0949   0DB1             capstog:			;
0950   0DB1 3A F5 2E      	ld 	a,(capslock)	;
0951   0DB4 EE FF       	xor 	11111111B	; swap all the bits
0952   0DB6 32 F5 2E    	ld 	(capslock),a	;
0953   0DB9 3E 00       	ld	a,0		; returns nothing
0954   0DBB C9          	ret			;
0955   0DBC             shiftdown:			; shift is special - hold it down and it autorepeats
0956   0DBC             				; so once it is down, turn caps on and ignore all further shifts
0957   0DBC             				; only an F0+shift turns caps lock off again
0958   0DBC 3E FF       	ld 	a,0ffh		;
0959   0DBE 32 F5 2E    	ld 	(capslock),a	;
0960   0DC1 3E 00       	ld 	a,0		; returns nothing
0961   0DC3 C9          	ret			;
0962   0DC4             shiftup:			; shiftup turns off caps lock definitely
0963   0DC4 3E 00       	ld 	a,0		;
0964   0DC6 32 F5 2E    	ld 	(capslock),a	;
0965   0DC9 3E 00       	ld 	a,0		; returns nothing
0966   0DCB C9          	ret			;
0967   0DCC             
0968   0DCC             ;__KB_ENQUEUE______________________________________________________________________________________
0969   0DCC             ;
0970   0DCC             ;  STORE A BYTE IN THE KEYBOARD QUEUE 
0971   0DCC             ;  A: BYTE TO ENQUEUE
0972   0DCC             ;__________________________________________________________________________________________________			   	   		
0973   0DCC             KB_ENQUEUE:
0974   0DCC D5          	PUSH	DE		; STORE DE
0975   0DCD E5          	PUSH	HL		; STORE HL	
0976   0DCE F5          	PUSH	AF		; STORE VALUE
0977   0DCF 3A 09 2F    	LD	A,(KB_QUEUE_PTR); PUT QUEUE POINTER IN A
0978   0DD2 FE 0F       	CP	15		; IS QUEUE FULL
0979   0DD4 F2 E9 0D    	JP	P,KB_ENQUEUE_AB	; YES, ABORT	
0980   0DD7 21 F9 2E    	LD	HL,KB_QUEUE	; GET QUEUE POINTER
0981   0DDA E5          	PUSH	HL		; MOVE HL TO BC
0982   0DDB C1          	POP	BC		; 
0983   0DDC 26 00       	LD	H,0		; ZERO OUT H
0984   0DDE 6F          	LD	L,A		; PLACE QUEUE POINTER IN L
0985   0DDF 09          	ADD	HL,BC		; POINT HL AT THE NEXT LOACTION TO ADD VALUE
0986   0DE0 F1          	POP	AF		; RESTORE VALUE
0987   0DE1 77          	LD	(HL),A		; ENQUEUE VALUE
0988   0DE2 3A 09 2F    	LD	A,(KB_QUEUE_PTR); GET QUEUE POINTER
0989   0DE5 3C          	INC	A		; INC IT
0990   0DE6 32 09 2F    	LD	(KB_QUEUE_PTR),A; STORE QUEUE POINTER
0991   0DE9             KB_ENQUEUE_AB:
0992   0DE9 E1          	POP	HL		; RESTORE HL
0993   0DEA D1          	POP	DE		; RESTORE DE
0994   0DEB C9          	RET
0995   0DEC             	
0996   0DEC             	
0997   0DEC             
0998   0DEC             	
0999   0DEC             normalkeys: ; The TI character codes, offset from label by keyboard scan code
1000   0DEC 00 1B 31 32 		.db 000,027,"1","2","3","4","5","6","7","8","9","0","-","=",008,009			;00-0F
1000   0DF0 33 34 35 36 
1000   0DF4 37 38 39 30 
1000   0DF8 2D 3D 08 09 
1001   0DFC 71 77 65 72 		.DB "q","w","e","r","t","y","u","i","o","p","[","]",013,000,"a","s"			;10-1F
1001   0E00 74 79 75 69 
1001   0E04 6F 70 5B 5D 
1001   0E08 0D 00 61 73 
1002   0E0C 64 66 67 68 		.DB "d","f","g","h","j","k","l",";",27H,60H,000,092,"z","x","c","v"			;20-2F
1002   0E10 6A 6B 6C 3B 
1002   0E14 27 60 00 5C 
1002   0E18 7A 78 63 76 
1003   0E1C 62 6E 6D 2C 		.DB "b","n","m",",",".","/",000,000,000," ",000,000,000,000,000,000			;30-3F
1003   0E20 2E 2F 00 00 
1003   0E24 00 20 00 00 
1003   0E28 00 00 00 00 
1004   0E2C 00 00 00 00 		.DB 000,000,000,000,000,000,000,000,000,000,000,000,000,000,000,000			;40-4F
1004   0E30 00 00 00 00 
1004   0E34 00 00 00 00 
1004   0E38 00 00 00 00 
1005   0E3C 00 00 00 00 		.db 000,000,000,000,000,000,000,000,000,000,000,000,000,000,000,000			;50-5F
1005   0E40 00 00 00 00 
1005   0E44 00 00 00 00 
1005   0E48 00 00 00 00 
1006   0E4C 00 00 00 00 		.db 000,000,000,000,000,000,000,000,000,000,000,000,000,000,000,000			;60-6F
1006   0E50 00 00 00 00 
1006   0E54 00 00 00 00 
1006   0E58 00 00 00 00 
1007   0E5C 00 00 00 00 		.db 000,000,000,000,000,000,000,000,000,000,000,000,000,000,000,000			;70-7F
1007   0E60 00 00 00 00 
1007   0E64 00 00 00 00 
1007   0E68 00 00 00 00 
1008   0E6C 00 1B 21 40 		.db 000,027,"!","@","#","$","%","^","&","*","(",")","_","+",008,009
1008   0E70 23 24 25 5E 
1008   0E74 26 2A 28 29 
1008   0E78 5F 2B 08 09 
1009   0E7C 51 57 45 52 		.DB "Q","W","E","R","T","Y","U","I","O","P","{","}",013,000,"A","S"
1009   0E80 54 59 55 49 
1009   0E84 4F 50 7B 7D 
1009   0E88 0D 00 41 53 
1010   0E8C 44 46 47 48 		.DB "D","F","G","H","J","K","L",":",034,"~",000,"|","Z","X","C","V"
1010   0E90 4A 4B 4C 3A 
1010   0E94 22 7E 00 7C 
1010   0E98 5A 58 43 56 
1011   0E9C 42 4E 4D 3C 		.DB "B","N","M","<",">","?",000,000,000," ",000,000,000,000,000,000
1011   0EA0 3E 3F 00 00 
1011   0EA4 00 20 00 00 
1011   0EA8 00 00 00 00 
1012   0EAC 00 00 00 00 		.db 000,000,000,000,000,000,000,000,000,000,000,000,000,000,000,000
1012   0EB0 00 00 00 00 
1012   0EB4 00 00 00 00 
1012   0EB8 00 00 00 00 
1013   0EBC 00 00 00 00 		.DB 000,000,000,000,000,000,000,000,000,000,000,000,000,000,000,000
1013   0EC0 00 00 00 00 
1013   0EC4 00 00 00 00 
1013   0EC8 00 00 00 00 
1014   0ECC 00 00 00 00 		.db 000,000,000,000,000,000,000,000,000,000,000,000,000,000,000,000
1014   0ED0 00 00 00 00 
1014   0ED4 00 00 00 00 
1014   0ED8 00 00 00 00 
1015   0EDC 00 00 00 00 		.db 000,000,000,000,000,000,000,000,000,000,000,000,000,000,000,000
1015   0EE0 00 00 00 00 
1015   0EE4 00 00 00 00 
1015   0EE8 00 00 00 00 
1016   0EEC             	
1017   0EEC              .include "font.asm"	
0001+  0EEC             FONT:
0002+  0EEC 18 18 18 FF   .DB     $18,$18,$18,$FF,$FF,$18,$18,$18   
0002+  0EF0 FF 18 18 18 
0003+  0EF4 00 00 00 00   .DB     $00,$00,$00,$00,$00,$00,$00,$00   
0003+  0EF8 00 00 00 00 
0004+  0EFC C0 C0 30 30   .DB     $C0,$C0,$30,$30,$C0,$C0,$30,$30   
0004+  0F00 C0 C0 30 30 
0005+  0F04 00 00 00 00   .DB     $00,$00,$00,$00,$00,$00,$00,$00   
0005+  0F08 00 00 00 00 
0006+  0F0C 18 18 18 18   .DB     $18,$18,$18,$18,$18,$18,$18,$18   
0006+  0F10 18 18 18 18 
0007+  0F14 00 00 00 00   .DB     $00,$00,$00,$00,$00,$00,$00,$00   
0007+  0F18 00 00 00 00 
0008+  0F1C 33 33 CC CC   .DB     $33,$33,$CC,$CC,$33,$33,$CC,$CC   
0008+  0F20 33 33 CC CC 
0009+  0F24 00 00 00 00   .DB     $00,$00,$00,$00,$00,$00,$00,$00   
0009+  0F28 00 00 00 00 
0010+  0F2C 33 99 CC 66   .DB     $33,$99,$CC,$66,$33,$99,$CC,$66   
0010+  0F30 33 99 CC 66 
0011+  0F34 00 00 00 00   .DB     $00,$00,$00,$00,$00,$00,$00,$00   
0011+  0F38 00 00 00 00 
0012+  0F3C 00 00 00 00   .DB     $00,$00,$00,$00,$00,$00,$00,$00   
0012+  0F40 00 00 00 00 
0013+  0F44 00 00 00 00   .DB     $00,$00,$00,$00,$00,$00,$00,$00   
0013+  0F48 00 00 00 00 
0014+  0F4C F0 F0 F0 F0   .DB     $F0,$F0,$F0,$F0,$F0,$F0,$F0,$F0   
0014+  0F50 F0 F0 F0 F0 
0015+  0F54 00 00 00 00   .DB     $00,$00,$00,$00,$00,$00,$00,$00   
0015+  0F58 00 00 00 00 
0016+  0F5C 00 00 00 00   .DB     $00,$00,$00,$00,$FF,$FF,$FF,$FF   
0016+  0F60 FF FF FF FF 
0017+  0F64 00 00 00 00   .DB     $00,$00,$00,$00,$00,$00,$00,$00   
0017+  0F68 00 00 00 00 
0018+  0F6C FF 00 00 00   .DB     $FF,$00,$00,$00,$00,$00,$00,$00   
0018+  0F70 00 00 00 00 
0019+  0F74 00 00 00 00   .DB     $00,$00,$00,$00,$00,$00,$00,$00   
0019+  0F78 00 00 00 00 
0020+  0F7C 00 00 00 00   .DB     $00,$00,$00,$00,$00,$00,$00,$FF   
0020+  0F80 00 00 00 FF 
0021+  0F84 00 00 00 00   .DB     $00,$00,$00,$00,$00,$00,$00,$00   
0021+  0F88 00 00 00 00 
0022+  0F8C C0 C0 C0 C0   .DB     $C0,$C0,$C0,$C0,$C0,$C0,$C0,$C0   
0022+  0F90 C0 C0 C0 C0 
0023+  0F94 00 00 00 00   .DB     $00,$00,$00,$00,$00,$00,$00,$00   
0023+  0F98 00 00 00 00 
0024+  0F9C CC CC 33 33   .DB     $CC,$CC,$33,$33,$CC,$CC,$33,$33   
0024+  0FA0 CC CC 33 33 
0025+  0FA4 00 00 00 00   .DB     $00,$00,$00,$00,$00,$00,$00,$00   
0025+  0FA8 00 00 00 00 
0026+  0FAC 03 03 03 03   .DB     $03,$03,$03,$03,$03,$03,$03,$03   
0026+  0FB0 03 03 03 03 
0027+  0FB4 00 00 00 00   .DB     $00,$00,$00,$00,$00,$00,$00,$00   
0027+  0FB8 00 00 00 00 
0028+  0FBC 00 00 00 00   .DB     $00,$00,$00,$00,$CC,$CC,$33,$33   
0028+  0FC0 CC CC 33 33 
0029+  0FC4 00 00 00 00   .DB     $00,$00,$00,$00,$00,$00,$00,$00   
0029+  0FC8 00 00 00 00 
0030+  0FCC CC 99 33 66   .DB     $CC,$99,$33,$66,$CC,$99,$33,$66   
0030+  0FD0 CC 99 33 66 
0031+  0FD4 00 00 00 00   .DB     $00,$00,$00,$00,$00,$00,$00,$00   
0031+  0FD8 00 00 00 00 
0032+  0FDC 03 03 03 03   .DB     $03,$03,$03,$03,$03,$03,$03,$03   
0032+  0FE0 03 03 03 03 
0033+  0FE4 00 00 00 00   .DB     $00,$00,$00,$00,$00,$00,$00,$00   
0033+  0FE8 00 00 00 00 
0034+  0FEC 18 18 18 1F   .DB     $18,$18,$18,$1F,$1F,$18,$18,$18   
0034+  0FF0 1F 18 18 18 
0035+  0FF4 00 00 00 00   .DB     $00,$00,$00,$00,$00,$00,$00,$00   
0035+  0FF8 00 00 00 00 
0036+  0FFC 00 00 00 00   .DB     $00,$00,$00,$00,$0F,$0F,$0F,$0F   
0036+  1000 0F 0F 0F 0F 
0037+  1004 00 00 00 00   .DB     $00,$00,$00,$00,$00,$00,$00,$00   
0037+  1008 00 00 00 00 
0038+  100C 18 18 18 1F   .DB     $18,$18,$18,$1F,$1F,$00,$00,$00   
0038+  1010 1F 00 00 00 
0039+  1014 00 00 00 00   .DB     $00,$00,$00,$00,$00,$00,$00,$00   
0039+  1018 00 00 00 00 
0040+  101C 00 00 00 F8   .DB     $00,$00,$00,$F8,$F8,$18,$18,$18   
0040+  1020 F8 18 18 18 
0041+  1024 00 00 00 00   .DB     $00,$00,$00,$00,$00,$00,$00,$00   
0041+  1028 00 00 00 00 
0042+  102C 00 00 00 00   .DB     $00,$00,$00,$00,$00,$00,$FF,$FF   
0042+  1030 00 00 FF FF 
0043+  1034 00 00 00 00   .DB     $00,$00,$00,$00,$00,$00,$00,$00   
0043+  1038 00 00 00 00 
0044+  103C 00 00 00 1F   .DB     $00,$00,$00,$1F,$1F,$18,$18,$18   
0044+  1040 1F 18 18 18 
0045+  1044 00 00 00 00   .DB     $00,$00,$00,$00,$00,$00,$00,$00   
0045+  1048 00 00 00 00 
0046+  104C 18 18 18 FF   .DB     $18,$18,$18,$FF,$FF,$00,$00,$00   
0046+  1050 FF 00 00 00 
0047+  1054 00 00 00 00   .DB     $00,$00,$00,$00,$00,$00,$00,$00   
0047+  1058 00 00 00 00 
0048+  105C 00 00 00 FF   .DB     $00,$00,$00,$FF,$FF,$18,$18,$18   
0048+  1060 FF 18 18 18 
0049+  1064 00 00 00 00   .DB     $00,$00,$00,$00,$00,$00,$00,$00   
0049+  1068 00 00 00 00 
0050+  106C 18 18 18 F8   .DB     $18,$18,$18,$F8,$F8,$18,$18,$18   
0050+  1070 F8 18 18 18 
0051+  1074 00 00 00 00   .DB     $00,$00,$00,$00,$00,$00,$00,$00   
0051+  1078 00 00 00 00 
0052+  107C C0 C0 C0 C0   .DB     $C0,$C0,$C0,$C0,$C0,$C0,$C0,$C0   
0052+  1080 C0 C0 C0 C0 
0053+  1084 00 00 00 00   .DB     $00,$00,$00,$00,$00,$00,$00,$00   
0053+  1088 00 00 00 00 
0054+  108C E0 E0 E0 E0   .DB     $E0,$E0,$E0,$E0,$E0,$E0,$E0,$E0   
0054+  1090 E0 E0 E0 E0 
0055+  1094 00 00 00 00   .DB     $00,$00,$00,$00,$00,$00,$00,$00   
0055+  1098 00 00 00 00 
0056+  109C 07 07 07 07   .DB     $07,$07,$07,$07,$07,$07,$07,$07   
0056+  10A0 07 07 07 07 
0057+  10A4 00 00 00 00   .DB     $00,$00,$00,$00,$00,$00,$00,$00   
0057+  10A8 00 00 00 00 
0058+  10AC FF FF 00 00   .DB     $FF,$FF,$00,$00,$00,$00,$00,$00   
0058+  10B0 00 00 00 00 
0059+  10B4 00 00 00 00   .DB     $00,$00,$00,$00,$00,$00,$00,$00   
0059+  10B8 00 00 00 00 
0060+  10BC FF FF FF 00   .DB     $FF,$FF,$FF,$00,$00,$00,$00,$00   
0060+  10C0 00 00 00 00 
0061+  10C4 00 00 00 00   .DB     $00,$00,$00,$00,$00,$00,$00,$00   
0061+  10C8 00 00 00 00 
0062+  10CC 00 00 00 00   .DB     $00,$00,$00,$00,$00,$FF,$FF,$FF   
0062+  10D0 00 FF FF FF 
0063+  10D4 00 00 00 00   .DB     $00,$00,$00,$00,$00,$00,$00,$00   
0063+  10D8 00 00 00 00 
0064+  10DC 01 03 06 6C   .DB     $01,$03,$06,$6C,$78,$70,$60,$00   
0064+  10E0 78 70 60 00 
0065+  10E4 00 00 00 00   .DB     $00,$00,$00,$00,$00,$00,$00,$00   
0065+  10E8 00 00 00 00 
0066+  10EC 00 00 00 00   .DB     $00,$00,$00,$00,$00,$00,$00,$00   
0066+  10F0 00 00 00 00 
0067+  10F4 00 00 00 00   .DB     $00,$00,$00,$00,$00,$00,$00,$00   
0067+  10F8 00 00 00 00 
0068+  10FC 18 18 18 18   .DB     $18,$18,$18,$18,$00,$00,$18,$00   
0068+  1100 00 00 18 00 
0069+  1104 00 00 00 00   .DB     $00,$00,$00,$00,$00,$00,$00,$00   
0069+  1108 00 00 00 00 
0070+  110C 66 66 66 00   .DB     $66,$66,$66,$00,$00,$00,$00,$00   
0070+  1110 00 00 00 00 
0071+  1114 00 00 00 00   .DB     $00,$00,$00,$00,$00,$00,$00,$00   
0071+  1118 00 00 00 00 
0072+  111C 66 66 FF 66   .DB     $66,$66,$FF,$66,$FF,$66,$66,$00   
0072+  1120 FF 66 66 00 
0073+  1124 00 00 00 00   .DB     $00,$00,$00,$00,$00,$00,$00,$00   
0073+  1128 00 00 00 00 
0074+  112C 18 3E 60 3C   .DB     $18,$3E,$60,$3C,$06,$7C,$18,$00   
0074+  1130 06 7C 18 00 
0075+  1134 00 00 00 00   .DB     $00,$00,$00,$00,$00,$00,$00,$00   
0075+  1138 00 00 00 00 
0076+  113C 62 66 0C 18   .DB     $62,$66,$0C,$18,$30,$66,$46,$00   
0076+  1140 30 66 46 00 
0077+  1144 00 00 00 00   .DB     $00,$00,$00,$00,$00,$00,$00,$00   
0077+  1148 00 00 00 00 
0078+  114C 3C 66 3C 38   .DB     $3C,$66,$3C,$38,$67,$66,$3F,$00   
0078+  1150 67 66 3F 00 
0079+  1154 00 00 00 00   .DB     $00,$00,$00,$00,$00,$00,$00,$00   
0079+  1158 00 00 00 00 
0080+  115C 06 0C 18 00   .DB     $06,$0C,$18,$00,$00,$00,$00,$00   
0080+  1160 00 00 00 00 
0081+  1164 00 00 00 00   .DB     $00,$00,$00,$00,$00,$00,$00,$00   
0081+  1168 00 00 00 00 
0082+  116C 0C 18 30 30   .DB     $0C,$18,$30,$30,$30,$18,$0C,$00   
0082+  1170 30 18 0C 00 
0083+  1174 00 00 00 00   .DB     $00,$00,$00,$00,$00,$00,$00,$00   
0083+  1178 00 00 00 00 
0084+  117C 30 18 0C 0C   .DB     $30,$18,$0C,$0C,$0C,$18,$30,$00   
0084+  1180 0C 18 30 00 
0085+  1184 00 00 00 00   .DB     $00,$00,$00,$00,$00,$00,$00,$00   
0085+  1188 00 00 00 00 
0086+  118C 00 66 3C FF   .DB     $00,$66,$3C,$FF,$3C,$66,$00,$00   
0086+  1190 3C 66 00 00 
0087+  1194 00 00 00 00   .DB     $00,$00,$00,$00,$00,$00,$00,$00   
0087+  1198 00 00 00 00 
0088+  119C 00 18 18 7E   .DB     $00,$18,$18,$7E,$18,$18,$00,$00   
0088+  11A0 18 18 00 00 
0089+  11A4 00 00 00 00   .DB     $00,$00,$00,$00,$00,$00,$00,$00   
0089+  11A8 00 00 00 00 
0090+  11AC 00 00 00 00   .DB     $00,$00,$00,$00,$00,$18,$18,$30   
0090+  11B0 00 18 18 30 
0091+  11B4 00 00 00 00   .DB     $00,$00,$00,$00,$00,$00,$00,$00   
0091+  11B8 00 00 00 00 
0092+  11BC 00 00 00 7E   .DB     $00,$00,$00,$7E,$00,$00,$00,$00   
0092+  11C0 00 00 00 00 
0093+  11C4 00 00 00 00   .DB     $00,$00,$00,$00,$00,$00,$00,$00   
0093+  11C8 00 00 00 00 
0094+  11CC 00 00 00 00   .DB     $00,$00,$00,$00,$00,$18,$18,$00   
0094+  11D0 00 18 18 00 
0095+  11D4 00 00 00 00   .DB     $00,$00,$00,$00,$00,$00,$00,$00   
0095+  11D8 00 00 00 00 
0096+  11DC 00 03 06 0C   .DB     $00,$03,$06,$0C,$18,$30,$60,$00   
0096+  11E0 18 30 60 00 
0097+  11E4 00 00 00 00   .DB     $00,$00,$00,$00,$00,$00,$00,$00   
0097+  11E8 00 00 00 00 
0098+  11EC 3C 66 6E 76   .DB     $3C,$66,$6E,$76,$66,$66,$3C,$00   
0098+  11F0 66 66 3C 00 
0099+  11F4 00 00 00 00   .DB     $00,$00,$00,$00,$00,$00,$00,$00   
0099+  11F8 00 00 00 00 
0100+  11FC 18 18 38 18   .DB     $18,$18,$38,$18,$18,$18,$7E,$00   
0100+  1200 18 18 7E 00 
0101+  1204 00 00 00 00   .DB     $00,$00,$00,$00,$00,$00,$00,$00   
0101+  1208 00 00 00 00 
0102+  120C 3C 66 06 0C   .DB     $3C,$66,$06,$0C,$30,$60,$7E,$00   
0102+  1210 30 60 7E 00 
0103+  1214 00 00 00 00   .DB     $00,$00,$00,$00,$00,$00,$00,$00   
0103+  1218 00 00 00 00 
0104+  121C 3C 66 06 1C   .DB     $3C,$66,$06,$1C,$06,$66,$3C,$00   
0104+  1220 06 66 3C 00 
0105+  1224 00 00 00 00   .DB     $00,$00,$00,$00,$00,$00,$00,$00   
0105+  1228 00 00 00 00 
0106+  122C 06 0E 1E 66   .DB     $06,$0E,$1E,$66,$7F,$06,$06,$00   
0106+  1230 7F 06 06 00 
0107+  1234 00 00 00 00   .DB     $00,$00,$00,$00,$00,$00,$00,$00   
0107+  1238 00 00 00 00 
0108+  123C 7E 60 7C 06   .DB     $7E,$60,$7C,$06,$06,$66,$3C,$00   
0108+  1240 06 66 3C 00 
0109+  1244 00 00 00 00   .DB     $00,$00,$00,$00,$00,$00,$00,$00   
0109+  1248 00 00 00 00 
0110+  124C 3C 66 60 7C   .DB     $3C,$66,$60,$7C,$66,$66,$3C,$00   
0110+  1250 66 66 3C 00 
0111+  1254 00 00 00 00   .DB     $00,$00,$00,$00,$00,$00,$00,$00   
0111+  1258 00 00 00 00 
0112+  125C 7E 66 0C 18   .DB     $7E,$66,$0C,$18,$18,$18,$18,$00   
0112+  1260 18 18 18 00 
0113+  1264 00 00 00 00   .DB     $00,$00,$00,$00,$00,$00,$00,$00   
0113+  1268 00 00 00 00 
0114+  126C 3C 66 66 3C   .DB     $3C,$66,$66,$3C,$66,$66,$3C,$00   
0114+  1270 66 66 3C 00 
0115+  1274 00 00 00 00   .DB     $00,$00,$00,$00,$00,$00,$00,$00   
0115+  1278 00 00 00 00 
0116+  127C 3C 66 66 3E   .DB     $3C,$66,$66,$3E,$06,$66,$3C,$00   
0116+  1280 06 66 3C 00 
0117+  1284 00 00 00 00   .DB     $00,$00,$00,$00,$00,$00,$00,$00   
0117+  1288 00 00 00 00 
0118+  128C 00 00 18 00   .DB     $00,$00,$18,$00,$00,$18,$00,$00   
0118+  1290 00 18 00 00 
0119+  1294 00 00 00 00   .DB     $00,$00,$00,$00,$00,$00,$00,$00   
0119+  1298 00 00 00 00 
0120+  129C 00 00 18 00   .DB     $00,$00,$18,$00,$00,$18,$18,$30   
0120+  12A0 00 18 18 30 
0121+  12A4 00 00 00 00   .DB     $00,$00,$00,$00,$00,$00,$00,$00   
0121+  12A8 00 00 00 00 
0122+  12AC 0E 18 30 60   .DB     $0E,$18,$30,$60,$30,$18,$0E,$00   
0122+  12B0 30 18 0E 00 
0123+  12B4 00 00 00 00   .DB     $00,$00,$00,$00,$00,$00,$00,$00   
0123+  12B8 00 00 00 00 
0124+  12BC 00 00 7E 00   .DB     $00,$00,$7E,$00,$7E,$00,$00,$00   
0124+  12C0 7E 00 00 00 
0125+  12C4 00 00 00 00   .DB     $00,$00,$00,$00,$00,$00,$00,$00   
0125+  12C8 00 00 00 00 
0126+  12CC 70 18 0C 06   .DB     $70,$18,$0C,$06,$0C,$18,$70,$00   
0126+  12D0 0C 18 70 00 
0127+  12D4 00 00 00 00   .DB     $00,$00,$00,$00,$00,$00,$00,$00   
0127+  12D8 00 00 00 00 
0128+  12DC 3C 66 06 0C   .DB     $3C,$66,$06,$0C,$18,$00,$18,$00   
0128+  12E0 18 00 18 00 
0129+  12E4 00 00 00 00   .DB     $00,$00,$00,$00,$00,$00,$00,$00   
0129+  12E8 00 00 00 00 
0130+  12EC 3C 66 6E 6E   .DB     $3C,$66,$6E,$6E,$60,$62,$3C,$00   
0130+  12F0 60 62 3C 00 
0131+  12F4 00 00 00 00   .DB     $00,$00,$00,$00,$00,$00,$00,$00   
0131+  12F8 00 00 00 00 
0132+  12FC 18 3C 66 7E   .DB     $18,$3C,$66,$7E,$66,$66,$66,$00   
0132+  1300 66 66 66 00 
0133+  1304 00 00 00 00   .DB     $00,$00,$00,$00,$00,$00,$00,$00   
0133+  1308 00 00 00 00 
0134+  130C 7C 66 66 7C   .DB     $7C,$66,$66,$7C,$66,$66,$7C,$00   
0134+  1310 66 66 7C 00 
0135+  1314 00 00 00 00   .DB     $00,$00,$00,$00,$00,$00,$00,$00   
0135+  1318 00 00 00 00 
0136+  131C 3C 66 60 60   .DB     $3C,$66,$60,$60,$60,$66,$3C,$00   
0136+  1320 60 66 3C 00 
0137+  1324 00 00 00 00   .DB     $00,$00,$00,$00,$00,$00,$00,$00   
0137+  1328 00 00 00 00 
0138+  132C 78 6C 66 66   .DB     $78,$6C,$66,$66,$66,$6C,$78,$00   
0138+  1330 66 6C 78 00 
0139+  1334 00 00 00 00   .DB     $00,$00,$00,$00,$00,$00,$00,$00   
0139+  1338 00 00 00 00 
0140+  133C 7E 60 60 78   .DB     $7E,$60,$60,$78,$60,$60,$7E,$00   
0140+  1340 60 60 7E 00 
0141+  1344 00 00 00 00   .DB     $00,$00,$00,$00,$00,$00,$00,$00   
0141+  1348 00 00 00 00 
0142+  134C 7E 60 60 78   .DB     $7E,$60,$60,$78,$60,$60,$60,$00   
0142+  1350 60 60 60 00 
0143+  1354 00 00 00 00   .DB     $00,$00,$00,$00,$00,$00,$00,$00   
0143+  1358 00 00 00 00 
0144+  135C 3C 66 60 6E   .DB     $3C,$66,$60,$6E,$66,$66,$3C,$00   
0144+  1360 66 66 3C 00 
0145+  1364 00 00 00 00   .DB     $00,$00,$00,$00,$00,$00,$00,$00   
0145+  1368 00 00 00 00 
0146+  136C 66 66 66 7E   .DB     $66,$66,$66,$7E,$66,$66,$66,$00   
0146+  1370 66 66 66 00 
0147+  1374 00 00 00 00   .DB     $00,$00,$00,$00,$00,$00,$00,$00   
0147+  1378 00 00 00 00 
0148+  137C 3C 18 18 18   .DB     $3C,$18,$18,$18,$18,$18,$3C,$00   
0148+  1380 18 18 3C 00 
0149+  1384 00 00 00 00   .DB     $00,$00,$00,$00,$00,$00,$00,$00   
0149+  1388 00 00 00 00 
0150+  138C 1E 0C 0C 0C   .DB     $1E,$0C,$0C,$0C,$0C,$6C,$38,$00   
0150+  1390 0C 6C 38 00 
0151+  1394 00 00 00 00   .DB     $00,$00,$00,$00,$00,$00,$00,$00   
0151+  1398 00 00 00 00 
0152+  139C 66 6C 78 70   .DB     $66,$6C,$78,$70,$78,$6C,$66,$00   
0152+  13A0 78 6C 66 00 
0153+  13A4 00 00 00 00   .DB     $00,$00,$00,$00,$00,$00,$00,$00   
0153+  13A8 00 00 00 00 
0154+  13AC 60 60 60 60   .DB     $60,$60,$60,$60,$60,$60,$7E,$00   
0154+  13B0 60 60 7E 00 
0155+  13B4 00 00 00 00   .DB     $00,$00,$00,$00,$00,$00,$00,$00   
0155+  13B8 00 00 00 00 
0156+  13BC 63 77 7F 6B   .DB     $63,$77,$7F,$6B,$63,$63,$63,$00   
0156+  13C0 63 63 63 00 
0157+  13C4 00 00 00 00   .DB     $00,$00,$00,$00,$00,$00,$00,$00   
0157+  13C8 00 00 00 00 
0158+  13CC 66 76 7E 7E   .DB     $66,$76,$7E,$7E,$6E,$66,$66,$00   
0158+  13D0 6E 66 66 00 
0159+  13D4 00 00 00 00   .DB     $00,$00,$00,$00,$00,$00,$00,$00   
0159+  13D8 00 00 00 00 
0160+  13DC 3C 66 66 66   .DB     $3C,$66,$66,$66,$66,$66,$3C,$00   
0160+  13E0 66 66 3C 00 
0161+  13E4 00 00 00 00   .DB     $00,$00,$00,$00,$00,$00,$00,$00   
0161+  13E8 00 00 00 00 
0162+  13EC 7C 66 66 7C   .DB     $7C,$66,$66,$7C,$60,$60,$60,$00   
0162+  13F0 60 60 60 00 
0163+  13F4 00 00 00 00   .DB     $00,$00,$00,$00,$00,$00,$00,$00   
0163+  13F8 00 00 00 00 
0164+  13FC 3C 66 66 66   .DB     $3C,$66,$66,$66,$66,$3C,$0E,$00   
0164+  1400 66 3C 0E 00 
0165+  1404 00 00 00 00   .DB     $00,$00,$00,$00,$00,$00,$00,$00   
0165+  1408 00 00 00 00 
0166+  140C 7C 66 66 7C   .DB     $7C,$66,$66,$7C,$78,$6C,$66,$00   
0166+  1410 78 6C 66 00 
0167+  1414 00 00 00 00   .DB     $00,$00,$00,$00,$00,$00,$00,$00   
0167+  1418 00 00 00 00 
0168+  141C 3C 66 60 3C   .DB     $3C,$66,$60,$3C,$06,$66,$3C,$00   
0168+  1420 06 66 3C 00 
0169+  1424 00 00 00 00   .DB     $00,$00,$00,$00,$00,$00,$00,$00   
0169+  1428 00 00 00 00 
0170+  142C 7E 18 18 18   .DB     $7E,$18,$18,$18,$18,$18,$18,$00   
0170+  1430 18 18 18 00 
0171+  1434 00 00 00 00   .DB     $00,$00,$00,$00,$00,$00,$00,$00   
0171+  1438 00 00 00 00 
0172+  143C 66 66 66 66   .DB     $66,$66,$66,$66,$66,$66,$3C,$00   
0172+  1440 66 66 3C 00 
0173+  1444 00 00 00 00   .DB     $00,$00,$00,$00,$00,$00,$00,$00   
0173+  1448 00 00 00 00 
0174+  144C 66 66 66 66   .DB     $66,$66,$66,$66,$66,$3C,$18,$00   
0174+  1450 66 3C 18 00 
0175+  1454 00 00 00 00   .DB     $00,$00,$00,$00,$00,$00,$00,$00   
0175+  1458 00 00 00 00 
0176+  145C 63 63 63 6B   .DB     $63,$63,$63,$6B,$7F,$77,$63,$00   
0176+  1460 7F 77 63 00 
0177+  1464 00 00 00 00   .DB     $00,$00,$00,$00,$00,$00,$00,$00   
0177+  1468 00 00 00 00 
0178+  146C 66 66 3C 18   .DB     $66,$66,$3C,$18,$3C,$66,$66,$00   
0178+  1470 3C 66 66 00 
0179+  1474 00 00 00 00   .DB     $00,$00,$00,$00,$00,$00,$00,$00   
0179+  1478 00 00 00 00 
0180+  147C 66 66 66 3C   .DB     $66,$66,$66,$3C,$18,$18,$18,$00   
0180+  1480 18 18 18 00 
0181+  1484 00 00 00 00   .DB     $00,$00,$00,$00,$00,$00,$00,$00   
0181+  1488 00 00 00 00 
0182+  148C 7E 06 0C 18   .DB     $7E,$06,$0C,$18,$30,$60,$7E,$00   
0182+  1490 30 60 7E 00 
0183+  1494 00 00 00 00   .DB     $00,$00,$00,$00,$00,$00,$00,$00   
0183+  1498 00 00 00 00 
0184+  149C 3C 30 30 30   .DB     $3C,$30,$30,$30,$30,$30,$3C,$00   
0184+  14A0 30 30 3C 00 
0185+  14A4 00 00 00 00   .DB     $00,$00,$00,$00,$00,$00,$00,$00   
0185+  14A8 00 00 00 00 
0186+  14AC 40 60 30 18   .DB     $40,$60,$30,$18,$0C,$06,$02,$00   
0186+  14B0 0C 06 02 00 
0187+  14B4 00 00 00 00   .DB     $00,$00,$00,$00,$00,$00,$00,$00   
0187+  14B8 00 00 00 00 
0188+  14BC 3C 0C 0C 0C   .DB     $3C,$0C,$0C,$0C,$0C,$0C,$3C,$00   
0188+  14C0 0C 0C 3C 00 
0189+  14C4 00 00 00 00   .DB     $00,$00,$00,$00,$00,$00,$00,$00   
0189+  14C8 00 00 00 00 
0190+  14CC 00 18 24 42   .DB     $00,$18,$24,$42,$42,$00,$00,$00   
0190+  14D0 42 00 00 00 
0191+  14D4 00 00 00 00   .DB     $00,$00,$00,$00,$00,$00,$00,$00   
0191+  14D8 00 00 00 00 
0192+  14DC 00 00 00 00   .DB     $00,$00,$00,$00,$00,$00,$00,$FF   
0192+  14E0 00 00 00 FF 
0193+  14E4 00 00 00 00   .DB     $00,$00,$00,$00,$00,$00,$00,$00   
0193+  14E8 00 00 00 00 
0194+  14EC 00 30 18 0C   .DB     $00,$30,$18,$0C,$04,$00,$00,$00   
0194+  14F0 04 00 00 00 
0195+  14F4 00 00 00 00   .DB     $00,$00,$00,$00,$00,$00,$00,$00   
0195+  14F8 00 00 00 00 
0196+  14FC 00 00 3C 06   .DB     $00,$00,$3C,$06,$3E,$66,$3E,$00   
0196+  1500 3E 66 3E 00 
0197+  1504 00 00 00 00   .DB     $00,$00,$00,$00,$00,$00,$00,$00   
0197+  1508 00 00 00 00 
0198+  150C 00 60 60 7C   .DB     $00,$60,$60,$7C,$66,$66,$7C,$00   
0198+  1510 66 66 7C 00 
0199+  1514 00 00 00 00   .DB     $00,$00,$00,$00,$00,$00,$00,$00   
0199+  1518 00 00 00 00 
0200+  151C 00 00 3C 60   .DB     $00,$00,$3C,$60,$60,$60,$3C,$00   
0200+  1520 60 60 3C 00 
0201+  1524 00 00 00 00   .DB     $00,$00,$00,$00,$00,$00,$00,$00   
0201+  1528 00 00 00 00 
0202+  152C 00 06 06 3E   .DB     $00,$06,$06,$3E,$66,$66,$3E,$00   
0202+  1530 66 66 3E 00 
0203+  1534 00 00 00 00   .DB     $00,$00,$00,$00,$00,$00,$00,$00   
0203+  1538 00 00 00 00 
0204+  153C 00 00 3C 66   .DB     $00,$00,$3C,$66,$7E,$60,$3C,$00   
0204+  1540 7E 60 3C 00 
0205+  1544 00 00 00 00   .DB     $00,$00,$00,$00,$00,$00,$00,$00   
0205+  1548 00 00 00 00 
0206+  154C 00 0E 18 3E   .DB     $00,$0E,$18,$3E,$18,$18,$18,$00   
0206+  1550 18 18 18 00 
0207+  1554 00 00 00 00   .DB     $00,$00,$00,$00,$00,$00,$00,$00   
0207+  1558 00 00 00 00 
0208+  155C 00 00 3E 66   .DB     $00,$00,$3E,$66,$66,$3E,$06,$7C   
0208+  1560 66 3E 06 7C 
0209+  1564 00 00 00 00   .DB     $00,$00,$00,$00,$00,$00,$00,$00   
0209+  1568 00 00 00 00 
0210+  156C 00 60 60 7C   .DB     $00,$60,$60,$7C,$66,$66,$66,$00   
0210+  1570 66 66 66 00 
0211+  1574 00 00 00 00   .DB     $00,$00,$00,$00,$00,$00,$00,$00   
0211+  1578 00 00 00 00 
0212+  157C 00 18 00 38   .DB     $00,$18,$00,$38,$18,$18,$3C,$00   
0212+  1580 18 18 3C 00 
0213+  1584 00 00 00 00   .DB     $00,$00,$00,$00,$00,$00,$00,$00   
0213+  1588 00 00 00 00 
0214+  158C 00 06 00 06   .DB     $00,$06,$00,$06,$06,$06,$06,$3C   
0214+  1590 06 06 06 3C 
0215+  1594 00 00 00 00   .DB     $00,$00,$00,$00,$00,$00,$00,$00   
0215+  1598 00 00 00 00 
0216+  159C 00 60 60 6C   .DB     $00,$60,$60,$6C,$78,$6C,$66,$00   
0216+  15A0 78 6C 66 00 
0217+  15A4 00 00 00 00   .DB     $00,$00,$00,$00,$00,$00,$00,$00   
0217+  15A8 00 00 00 00 
0218+  15AC 00 38 18 18   .DB     $00,$38,$18,$18,$18,$18,$3C,$00   
0218+  15B0 18 18 3C 00 
0219+  15B4 00 00 00 00   .DB     $00,$00,$00,$00,$00,$00,$00,$00   
0219+  15B8 00 00 00 00 
0220+  15BC 00 00 66 7F   .DB     $00,$00,$66,$7F,$7F,$6B,$63,$00   
0220+  15C0 7F 6B 63 00 
0221+  15C4 00 00 00 00   .DB     $00,$00,$00,$00,$00,$00,$00,$00   
0221+  15C8 00 00 00 00 
0222+  15CC 00 00 7C 66   .DB     $00,$00,$7C,$66,$66,$66,$66,$00   
0222+  15D0 66 66 66 00 
0223+  15D4 00 00 00 00   .DB     $00,$00,$00,$00,$00,$00,$00,$00   
0223+  15D8 00 00 00 00 
0224+  15DC 00 00 3C 66   .DB     $00,$00,$3C,$66,$66,$66,$3C,$00   
0224+  15E0 66 66 3C 00 
0225+  15E4 00 00 00 00   .DB     $00,$00,$00,$00,$00,$00,$00,$00   
0225+  15E8 00 00 00 00 
0226+  15EC 00 00 7C 66   .DB     $00,$00,$7C,$66,$66,$7C,$60,$60   
0226+  15F0 66 7C 60 60 
0227+  15F4 00 00 00 00   .DB     $00,$00,$00,$00,$00,$00,$00,$00   
0227+  15F8 00 00 00 00 
0228+  15FC 00 00 3E 66   .DB     $00,$00,$3E,$66,$66,$3E,$06,$06   
0228+  1600 66 3E 06 06 
0229+  1604 00 00 00 00   .DB     $00,$00,$00,$00,$00,$00,$00,$00   
0229+  1608 00 00 00 00 
0230+  160C 00 00 7C 66   .DB     $00,$00,$7C,$66,$60,$60,$60,$00   
0230+  1610 60 60 60 00 
0231+  1614 00 00 00 00   .DB     $00,$00,$00,$00,$00,$00,$00,$00   
0231+  1618 00 00 00 00 
0232+  161C 00 00 3E 60   .DB     $00,$00,$3E,$60,$3C,$06,$7C,$00   
0232+  1620 3C 06 7C 00 
0233+  1624 00 00 00 00   .DB     $00,$00,$00,$00,$00,$00,$00,$00   
0233+  1628 00 00 00 00 
0234+  162C 00 18 7E 18   .DB     $00,$18,$7E,$18,$18,$18,$0E,$00   
0234+  1630 18 18 0E 00 
0235+  1634 00 00 00 00   .DB     $00,$00,$00,$00,$00,$00,$00,$00   
0235+  1638 00 00 00 00 
0236+  163C 00 00 66 66   .DB     $00,$00,$66,$66,$66,$66,$3E,$00   
0236+  1640 66 66 3E 00 
0237+  1644 00 00 00 00   .DB     $00,$00,$00,$00,$00,$00,$00,$00   
0237+  1648 00 00 00 00 
0238+  164C 00 00 66 66   .DB     $00,$00,$66,$66,$66,$3C,$18,$00   
0238+  1650 66 3C 18 00 
0239+  1654 00 00 00 00   .DB     $00,$00,$00,$00,$00,$00,$00,$00   
0239+  1658 00 00 00 00 
0240+  165C 00 00 63 6B   .DB     $00,$00,$63,$6B,$7F,$3E,$36,$00   
0240+  1660 7F 3E 36 00 
0241+  1664 00 00 00 00   .DB     $00,$00,$00,$00,$00,$00,$00,$00   
0241+  1668 00 00 00 00 
0242+  166C 00 00 66 3C   .DB     $00,$00,$66,$3C,$18,$3C,$66,$00   
0242+  1670 18 3C 66 00 
0243+  1674 00 00 00 00   .DB     $00,$00,$00,$00,$00,$00,$00,$00   
0243+  1678 00 00 00 00 
0244+  167C 00 00 66 66   .DB     $00,$00,$66,$66,$66,$3E,$0C,$78   
0244+  1680 66 3E 0C 78 
0245+  1684 00 00 00 00   .DB     $00,$00,$00,$00,$00,$00,$00,$00   
0245+  1688 00 00 00 00 
0246+  168C 00 00 7E 0C   .DB     $00,$00,$7E,$0C,$18,$30,$7E,$00   
0246+  1690 18 30 7E 00 
0247+  1694 00 00 00 00   .DB     $00,$00,$00,$00,$00,$00,$00,$00   
0247+  1698 00 00 00 00 
0248+  169C 00 0C 10 10   .DB     $00,$0C,$10,$10,$20,$10,$10,$0C   
0248+  16A0 20 10 10 0C 
0249+  16A4 00 00 00 00   .DB     $00,$00,$00,$00,$00,$00,$00,$00   
0249+  16A8 00 00 00 00 
0250+  16AC 00 18 18 18   .DB     $00,$18,$18,$18,$18,$18,$18,$00   
0250+  16B0 18 18 18 00 
0251+  16B4 00 00 00 00   .DB     $00,$00,$00,$00,$00,$00,$00,$00   
0251+  16B8 00 00 00 00 
0252+  16BC 00 18 04 04   .DB     $00,$18,$04,$04,$02,$04,$04,$18   
0252+  16C0 02 04 04 18 
0253+  16C4 00 00 00 00   .DB     $00,$00,$00,$00,$00,$00,$00,$00   
0253+  16C8 00 00 00 00 
0254+  16CC 00 00 00 00   .DB     $00,$00,$00,$00,$32,$4C,$00,$00   
0254+  16D0 32 4C 00 00 
0255+  16D4 00 00 00 00   .DB     $00,$00,$00,$00,$00,$00,$00,$00   
0255+  16D8 00 00 00 00 
0256+  16DC FF 81 81 81   .DB     $FF,$81,$81,$81,$81,$81,$81,$FF   
0256+  16E0 81 81 81 FF 
0257+  16E4 00 00 00 00   .DB     $00,$00,$00,$00,$00,$00,$00,$00   
0257+  16E8 00 00 00 00 
0258+  16EC F0 F0 F0 F0   .DB     $F0,$F0,$F0,$F0,$0F,$0F,$0F,$0F   
0258+  16F0 0F 0F 0F 0F 
0259+  16F4 00 00 00 00   .DB     $00,$00,$00,$00,$00,$00,$00,$00   
0259+  16F8 00 00 00 00 
0260+  16FC C3 99 91 91   .DB     $C3,$99,$91,$91,$9F,$99,$C3,$FF   
0260+  1700 9F 99 C3 FF 
0261+  1704 00 00 00 00   .DB     $00,$00,$00,$00,$00,$00,$00,$00   
0261+  1708 00 00 00 00 
0262+  170C FF FF C3 F9   .DB     $FF,$FF,$C3,$F9,$C1,$99,$C1,$FF   
0262+  1710 C1 99 C1 FF 
0263+  1714 00 00 00 00   .DB     $00,$00,$00,$00,$00,$00,$00,$00   
0263+  1718 00 00 00 00 
0264+  171C FF 9F 9F 83   .DB     $FF,$9F,$9F,$83,$99,$99,$83,$FF   
0264+  1720 99 99 83 FF 
0265+  1724 00 00 00 00   .DB     $00,$00,$00,$00,$00,$00,$00,$00   
0265+  1728 00 00 00 00 
0266+  172C FF FF C3 9F   .DB     $FF,$FF,$C3,$9F,$9F,$9F,$C3,$FF   
0266+  1730 9F 9F C3 FF 
0267+  1734 00 00 00 00   .DB     $00,$00,$00,$00,$00,$00,$00,$00   
0267+  1738 00 00 00 00 
0268+  173C FF F9 F9 C1   .DB     $FF,$F9,$F9,$C1,$99,$99,$C1,$FF   
0268+  1740 99 99 C1 FF 
0269+  1744 00 00 00 00   .DB     $00,$00,$00,$00,$00,$00,$00,$00   
0269+  1748 00 00 00 00 
0270+  174C FF FF C3 99   .DB     $FF,$FF,$C3,$99,$81,$9F,$C3,$FF   
0270+  1750 81 9F C3 FF 
0271+  1754 00 00 00 00   .DB     $00,$00,$00,$00,$00,$00,$00,$00   
0271+  1758 00 00 00 00 
0272+  175C FF F1 E7 C1   .DB     $FF,$F1,$E7,$C1,$E7,$E7,$E7,$FF   
0272+  1760 E7 E7 E7 FF 
0273+  1764 00 00 00 00   .DB     $00,$00,$00,$00,$00,$00,$00,$00   
0273+  1768 00 00 00 00 
0274+  176C FF FF C1 99   .DB     $FF,$FF,$C1,$99,$99,$C1,$F9,$83   
0274+  1770 99 C1 F9 83 
0275+  1774 00 00 00 00   .DB     $00,$00,$00,$00,$00,$00,$00,$00   
0275+  1778 00 00 00 00 
0276+  177C FF 9F 9F 83   .DB     $FF,$9F,$9F,$83,$99,$99,$99,$FF   
0276+  1780 99 99 99 FF 
0277+  1784 00 00 00 00   .DB     $00,$00,$00,$00,$00,$00,$00,$00   
0277+  1788 00 00 00 00 
0278+  178C FF E7 FF C7   .DB     $FF,$E7,$FF,$C7,$E7,$E7,$C3,$FF   
0278+  1790 E7 E7 C3 FF 
0279+  1794 00 00 00 00   .DB     $00,$00,$00,$00,$00,$00,$00,$00   
0279+  1798 00 00 00 00 
0280+  179C FF F9 FF F9   .DB     $FF,$F9,$FF,$F9,$F9,$F9,$F9,$C3   
0280+  17A0 F9 F9 F9 C3 
0281+  17A4 00 00 00 00   .DB     $00,$00,$00,$00,$00,$00,$00,$00   
0281+  17A8 00 00 00 00 
0282+  17AC FF 9F 9F 93   .DB     $FF,$9F,$9F,$93,$87,$93,$99,$FF   
0282+  17B0 87 93 99 FF 
0283+  17B4 00 00 00 00   .DB     $00,$00,$00,$00,$00,$00,$00,$00   
0283+  17B8 00 00 00 00 
0284+  17BC FF C7 E7 E7   .DB     $FF,$C7,$E7,$E7,$E7,$E7,$C3,$FF   
0284+  17C0 E7 E7 C3 FF 
0285+  17C4 00 00 00 00   .DB     $00,$00,$00,$00,$00,$00,$00,$00   
0285+  17C8 00 00 00 00 
0286+  17CC FF FF 99 80   .DB     $FF,$FF,$99,$80,$80,$94,$9C,$FF   
0286+  17D0 80 94 9C FF 
0287+  17D4 00 00 00 00   .DB     $00,$00,$00,$00,$00,$00,$00,$00   
0287+  17D8 00 00 00 00 
0288+  17DC FF FF 83 99   .DB     $FF,$FF,$83,$99,$99,$99,$99,$FF   
0288+  17E0 99 99 99 FF 
0289+  17E4 00 00 00 00   .DB     $00,$00,$00,$00,$00,$00,$00,$00   
0289+  17E8 00 00 00 00 
0290+  17EC FF FF C3 99   .DB     $FF,$FF,$C3,$99,$99,$99,$C3,$FF   
0290+  17F0 99 99 C3 FF 
0291+  17F4 00 00 00 00   .DB     $00,$00,$00,$00,$00,$00,$00,$00   
0291+  17F8 00 00 00 00 
0292+  17FC FF FF 83 99   .DB     $FF,$FF,$83,$99,$99,$83,$9F,$9F   
0292+  1800 99 83 9F 9F 
0293+  1804 00 00 00 00   .DB     $00,$00,$00,$00,$00,$00,$00,$00   
0293+  1808 00 00 00 00 
0294+  180C FF FF C1 99   .DB     $FF,$FF,$C1,$99,$99,$C1,$F9,$F9   
0294+  1810 99 C1 F9 F9 
0295+  1814 00 00 00 00   .DB     $00,$00,$00,$00,$00,$00,$00,$00   
0295+  1818 00 00 00 00 
0296+  181C FF FF 83 99   .DB     $FF,$FF,$83,$99,$9F,$9F,$9F,$FF   
0296+  1820 9F 9F 9F FF 
0297+  1824 00 00 00 00   .DB     $00,$00,$00,$00,$00,$00,$00,$00   
0297+  1828 00 00 00 00 
0298+  182C FF FF C1 9F   .DB     $FF,$FF,$C1,$9F,$C3,$F9,$83,$FF   
0298+  1830 C3 F9 83 FF 
0299+  1834 00 00 00 00   .DB     $00,$00,$00,$00,$00,$00,$00,$00   
0299+  1838 00 00 00 00 
0300+  183C FF E7 81 E7   .DB     $FF,$E7,$81,$E7,$E7,$E7,$F1,$FF   
0300+  1840 E7 E7 F1 FF 
0301+  1844 00 00 00 00   .DB     $00,$00,$00,$00,$00,$00,$00,$00   
0301+  1848 00 00 00 00 
0302+  184C FF FF 99 99   .DB     $FF,$FF,$99,$99,$99,$99,$C1,$FF   
0302+  1850 99 99 C1 FF 
0303+  1854 00 00 00 00   .DB     $00,$00,$00,$00,$00,$00,$00,$00   
0303+  1858 00 00 00 00 
0304+  185C FF FF 99 99   .DB     $FF,$FF,$99,$99,$99,$C3,$E7,$FF   
0304+  1860 99 C3 E7 FF 
0305+  1864 00 00 00 00   .DB     $00,$00,$00,$00,$00,$00,$00,$00   
0305+  1868 00 00 00 00 
0306+  186C FF FF 9C 94   .DB     $FF,$FF,$9C,$94,$80,$C1,$C9,$FF   
0306+  1870 80 C1 C9 FF 
0307+  1874 00 00 00 00   .DB     $00,$00,$00,$00,$00,$00,$00,$00   
0307+  1878 00 00 00 00 
0308+  187C FF FF 99 C3   .DB     $FF,$FF,$99,$C3,$E7,$C3,$99,$FF   
0308+  1880 E7 C3 99 FF 
0309+  1884 00 00 00 00   .DB     $00,$00,$00,$00,$00,$00,$00,$00   
0309+  1888 00 00 00 00 
0310+  188C FF FF 99 99   .DB     $FF,$FF,$99,$99,$99,$C1,$F3,$87   
0310+  1890 99 C1 F3 87 
0311+  1894 00 00 00 00   .DB     $00,$00,$00,$00,$00,$00,$00,$00   
0311+  1898 00 00 00 00 
0312+  189C FF FF 81 F3   .DB     $FF,$FF,$81,$F3,$E7,$CF,$81,$FF   
0312+  18A0 E7 CF 81 FF 
0313+  18A4 00 00 00 00   .DB     $00,$00,$00,$00,$00,$00,$00,$00   
0313+  18A8 00 00 00 00 
0314+  18AC C3 CF CF CF   .DB     $C3,$CF,$CF,$CF,$CF,$CF,$C3,$FF   
0314+  18B0 CF CF C3 FF 
0315+  18B4 00 00 00 00   .DB     $00,$00,$00,$00,$00,$00,$00,$00   
0315+  18B8 00 00 00 00 
0316+  18BC F3 ED CF 83   .DB     $F3,$ED,$CF,$83,$CF,$9D,$03,$FF   
0316+  18C0 CF 9D 03 FF 
0317+  18C4 00 00 00 00   .DB     $00,$00,$00,$00,$00,$00,$00,$00   
0317+  18C8 00 00 00 00 
0318+  18CC C3 F3 F3 F3   .DB     $C3,$F3,$F3,$F3,$F3,$F3,$C3,$FF   
0318+  18D0 F3 F3 C3 FF 
0319+  18D4 00 00 00 00   .DB     $00,$00,$00,$00,$00,$00,$00,$00   
0319+  18D8 00 00 00 00 
0320+  18DC FF E7 C3 81   .DB     $FF,$E7,$C3,$81,$E7,$E7,$E7,$E7   
0320+  18E0 E7 E7 E7 E7 
0321+  18E4 00 00 00 00   .DB     $00,$00,$00,$00,$00,$00,$00,$00   
0321+  18E8 00 00 00 00 
0322+  18EC FF EF CF 80   .DB     $FF,$EF,$CF,$80,$80,$CF,$EF,$FF   
0322+  18F0 80 CF EF FF 
0323+  18F4 00 00 00 00   .DB     $00,$00,$00,$00,$00,$00,$00,$00   
0323+  18F8 00 00 00 00 
0324+  18FC FF FF FF FF   .DB     $FF,$FF,$FF,$FF,$FF,$FF,$FF,$FF   
0324+  1900 FF FF FF FF 
0325+  1904 00 00 00 00   .DB     $00,$00,$00,$00,$00,$00,$00,$00   
0325+  1908 00 00 00 00 
0326+  190C E7 E7 E7 E7   .DB     $E7,$E7,$E7,$E7,$FF,$FF,$E7,$FF   
0326+  1910 FF FF E7 FF 
0327+  1914 00 00 00 00   .DB     $00,$00,$00,$00,$00,$00,$00,$00   
0327+  1918 00 00 00 00 
0328+  191C 99 99 99 FF   .DB     $99,$99,$99,$FF,$FF,$FF,$FF,$FF   
0328+  1920 FF FF FF FF 
0329+  1924 00 00 00 00   .DB     $00,$00,$00,$00,$00,$00,$00,$00   
0329+  1928 00 00 00 00 
0330+  192C 99 99 00 99   .DB     $99,$99,$00,$99,$00,$99,$99,$FF   
0330+  1930 00 99 99 FF 
0331+  1934 00 00 00 00   .DB     $00,$00,$00,$00,$00,$00,$00,$00   
0331+  1938 00 00 00 00 
0332+  193C E7 C1 9F C3   .DB     $E7,$C1,$9F,$C3,$F9,$83,$E7,$FF   
0332+  1940 F9 83 E7 FF 
0333+  1944 00 00 00 00   .DB     $00,$00,$00,$00,$00,$00,$00,$00   
0333+  1948 00 00 00 00 
0334+  194C 9D 99 F3 E7   .DB     $9D,$99,$F3,$E7,$CF,$99,$B9,$FF   
0334+  1950 CF 99 B9 FF 
0335+  1954 00 00 00 00   .DB     $00,$00,$00,$00,$00,$00,$00,$00   
0335+  1958 00 00 00 00 
0336+  195C C3 99 C3 C7   .DB     $C3,$99,$C3,$C7,$98,$99,$C0,$FF   
0336+  1960 98 99 C0 FF 
0337+  1964 00 00 00 00   .DB     $00,$00,$00,$00,$00,$00,$00,$00   
0337+  1968 00 00 00 00 
0338+  196C F9 F3 E7 FF   .DB     $F9,$F3,$E7,$FF,$FF,$FF,$FF,$FF   
0338+  1970 FF FF FF FF 
0339+  1974 00 00 00 00   .DB     $00,$00,$00,$00,$00,$00,$00,$00   
0339+  1978 00 00 00 00 
0340+  197C F3 E7 CF CF   .DB     $F3,$E7,$CF,$CF,$CF,$E7,$F3,$FF   
0340+  1980 CF E7 F3 FF 
0341+  1984 00 00 00 00   .DB     $00,$00,$00,$00,$00,$00,$00,$00   
0341+  1988 00 00 00 00 
0342+  198C CF E7 F3 F3   .DB     $CF,$E7,$F3,$F3,$F3,$E7,$CF,$FF   
0342+  1990 F3 E7 CF FF 
0343+  1994 00 00 00 00   .DB     $00,$00,$00,$00,$00,$00,$00,$00   
0343+  1998 00 00 00 00 
0344+  199C FF 99 C3 00   .DB     $FF,$99,$C3,$00,$C3,$99,$FF,$FF   
0344+  19A0 C3 99 FF FF 
0345+  19A4 00 00 00 00   .DB     $00,$00,$00,$00,$00,$00,$00,$00   
0345+  19A8 00 00 00 00 
0346+  19AC FF E7 E7 81   .DB     $FF,$E7,$E7,$81,$E7,$E7,$FF,$FF   
0346+  19B0 E7 E7 FF FF 
0347+  19B4 00 00 00 00   .DB     $00,$00,$00,$00,$00,$00,$00,$00   
0347+  19B8 00 00 00 00 
0348+  19BC FF FF FF FF   .DB     $FF,$FF,$FF,$FF,$FF,$E7,$E7,$CF   
0348+  19C0 FF E7 E7 CF 
0349+  19C4 00 00 00 00   .DB     $00,$00,$00,$00,$00,$00,$00,$00   
0349+  19C8 00 00 00 00 
0350+  19CC FF FF FF 81   .DB     $FF,$FF,$FF,$81,$FF,$FF,$FF,$FF   
0350+  19D0 FF FF FF FF 
0351+  19D4 00 00 00 00   .DB     $00,$00,$00,$00,$00,$00,$00,$00   
0351+  19D8 00 00 00 00 
0352+  19DC FF FF FF FF   .DB     $FF,$FF,$FF,$FF,$FF,$E7,$E7,$FF   
0352+  19E0 FF E7 E7 FF 
0353+  19E4 00 00 00 00   .DB     $00,$00,$00,$00,$00,$00,$00,$00   
0353+  19E8 00 00 00 00 
0354+  19EC FF FC F9 F3   .DB     $FF,$FC,$F9,$F3,$E7,$CF,$9F,$FF   
0354+  19F0 E7 CF 9F FF 
0355+  19F4 00 00 00 00   .DB     $00,$00,$00,$00,$00,$00,$00,$00   
0355+  19F8 00 00 00 00 
0356+  19FC C3 99 91 89   .DB     $C3,$99,$91,$89,$99,$99,$C3,$FF   
0356+  1A00 99 99 C3 FF 
0357+  1A04 00 00 00 00   .DB     $00,$00,$00,$00,$00,$00,$00,$00   
0357+  1A08 00 00 00 00 
0358+  1A0C E7 E7 C7 E7   .DB     $E7,$E7,$C7,$E7,$E7,$E7,$81,$FF   
0358+  1A10 E7 E7 81 FF 
0359+  1A14 00 00 00 00   .DB     $00,$00,$00,$00,$00,$00,$00,$00   
0359+  1A18 00 00 00 00 
0360+  1A1C C3 99 F9 F3   .DB     $C3,$99,$F9,$F3,$CF,$9F,$81,$FF   
0360+  1A20 CF 9F 81 FF 
0361+  1A24 00 00 00 00   .DB     $00,$00,$00,$00,$00,$00,$00,$00   
0361+  1A28 00 00 00 00 
0362+  1A2C C3 99 F9 E3   .DB     $C3,$99,$F9,$E3,$F9,$99,$C3,$FF   
0362+  1A30 F9 99 C3 FF 
0363+  1A34 00 00 00 00   .DB     $00,$00,$00,$00,$00,$00,$00,$00   
0363+  1A38 00 00 00 00 
0364+  1A3C F9 F1 E1 99   .DB     $F9,$F1,$E1,$99,$80,$F9,$F9,$FF   
0364+  1A40 80 F9 F9 FF 
0365+  1A44 00 00 00 00   .DB     $00,$00,$00,$00,$00,$00,$00,$00   
0365+  1A48 00 00 00 00 
0366+  1A4C 81 9F 83 F9   .DB     $81,$9F,$83,$F9,$F9,$99,$C3,$FF   
0366+  1A50 F9 99 C3 FF 
0367+  1A54 00 00 00 00   .DB     $00,$00,$00,$00,$00,$00,$00,$00   
0367+  1A58 00 00 00 00 
0368+  1A5C C3 99 9F 83   .DB     $C3,$99,$9F,$83,$99,$99,$C3,$FF   
0368+  1A60 99 99 C3 FF 
0369+  1A64 00 00 00 00   .DB     $00,$00,$00,$00,$00,$00,$00,$00   
0369+  1A68 00 00 00 00 
0370+  1A6C 81 99 F3 E7   .DB     $81,$99,$F3,$E7,$E7,$E7,$E7,$FF   
0370+  1A70 E7 E7 E7 FF 
0371+  1A74 00 00 00 00   .DB     $00,$00,$00,$00,$00,$00,$00,$00   
0371+  1A78 00 00 00 00 
0372+  1A7C C3 99 99 C3   .DB     $C3,$99,$99,$C3,$99,$99,$C3,$FF   
0372+  1A80 99 99 C3 FF 
0373+  1A84 00 00 00 00   .DB     $00,$00,$00,$00,$00,$00,$00,$00   
0373+  1A88 00 00 00 00 
0374+  1A8C C3 99 99 C1   .DB     $C3,$99,$99,$C1,$F9,$99,$C3,$FF   
0374+  1A90 F9 99 C3 FF 
0375+  1A94 00 00 00 00   .DB     $00,$00,$00,$00,$00,$00,$00,$00   
0375+  1A98 00 00 00 00 
0376+  1A9C FF FF E7 FF   .DB     $FF,$FF,$E7,$FF,$FF,$E7,$FF,$FF   
0376+  1AA0 FF E7 FF FF 
0377+  1AA4 00 00 00 00   .DB     $00,$00,$00,$00,$00,$00,$00,$00   
0377+  1AA8 00 00 00 00 
0378+  1AAC FF FF E7 FF   .DB     $FF,$FF,$E7,$FF,$FF,$E7,$E7,$CF   
0378+  1AB0 FF E7 E7 CF 
0379+  1AB4 00 00 00 00   .DB     $00,$00,$00,$00,$00,$00,$00,$00   
0379+  1AB8 00 00 00 00 
0380+  1ABC F1 E7 CF 9F   .DB     $F1,$E7,$CF,$9F,$CF,$E7,$F1,$FF   
0380+  1AC0 CF E7 F1 FF 
0381+  1AC4 00 00 00 00   .DB     $00,$00,$00,$00,$00,$00,$00,$00   
0381+  1AC8 00 00 00 00 
0382+  1ACC FF FF 81 FF   .DB     $FF,$FF,$81,$FF,$81,$FF,$FF,$FF   
0382+  1AD0 81 FF FF FF 
0383+  1AD4 00 00 00 00   .DB     $00,$00,$00,$00,$00,$00,$00,$00   
0383+  1AD8 00 00 00 00 
0384+  1ADC 8F E7 F3 F9   .DB     $8F,$E7,$F3,$F9,$F3,$E7,$8F,$FF   
0384+  1AE0 F3 E7 8F FF 
0385+  1AE4 00 00 00 00   .DB     $00,$00,$00,$00,$00,$00,$00,$00   
0385+  1AE8 00 00 00 00 
0386+  1AEC C3 99 F9 F3   .DB     $C3,$99,$F9,$F3,$E7,$FF,$E7,$FF   
0386+  1AF0 E7 FF E7 FF 
0387+  1AF4 00 00 00 00   .DB     $00,$00,$00,$00,$00,$00,$00,$00   
0387+  1AF8 00 00 00 00 
0388+  1AFC FF FF FF 00   .DB     $FF,$FF,$FF,$00,$00,$FF,$FF,$FF   
0388+  1B00 00 FF FF FF 
0389+  1B04 00 00 00 00   .DB     $00,$00,$00,$00,$00,$00,$00,$00   
0389+  1B08 00 00 00 00 
0390+  1B0C E7 C3 99 81   .DB     $E7,$C3,$99,$81,$99,$99,$99,$FF   
0390+  1B10 99 99 99 FF 
0391+  1B14 00 00 00 00   .DB     $00,$00,$00,$00,$00,$00,$00,$00   
0391+  1B18 00 00 00 00 
0392+  1B1C 83 99 99 83   .DB     $83,$99,$99,$83,$99,$99,$83,$FF   
0392+  1B20 99 99 83 FF 
0393+  1B24 00 00 00 00   .DB     $00,$00,$00,$00,$00,$00,$00,$00   
0393+  1B28 00 00 00 00 
0394+  1B2C C3 99 9F 9F   .DB     $C3,$99,$9F,$9F,$9F,$99,$C3,$FF   
0394+  1B30 9F 99 C3 FF 
0395+  1B34 00 00 00 00   .DB     $00,$00,$00,$00,$00,$00,$00,$00   
0395+  1B38 00 00 00 00 
0396+  1B3C 87 93 99 99   .DB     $87,$93,$99,$99,$99,$93,$87,$FF   
0396+  1B40 99 93 87 FF 
0397+  1B44 00 00 00 00   .DB     $00,$00,$00,$00,$00,$00,$00,$00   
0397+  1B48 00 00 00 00 
0398+  1B4C 81 9F 9F 87   .DB     $81,$9F,$9F,$87,$9F,$9F,$81,$FF   
0398+  1B50 9F 9F 81 FF 
0399+  1B54 00 00 00 00   .DB     $00,$00,$00,$00,$00,$00,$00,$00   
0399+  1B58 00 00 00 00 
0400+  1B5C 81 9F 9F 87   .DB     $81,$9F,$9F,$87,$9F,$9F,$9F,$FF   
0400+  1B60 9F 9F 9F FF 
0401+  1B64 00 00 00 00   .DB     $00,$00,$00,$00,$00,$00,$00,$00   
0401+  1B68 00 00 00 00 
0402+  1B6C C3 99 9F 91   .DB     $C3,$99,$9F,$91,$99,$99,$C3,$FF   
0402+  1B70 99 99 C3 FF 
0403+  1B74 00 00 00 00   .DB     $00,$00,$00,$00,$00,$00,$00,$00   
0403+  1B78 00 00 00 00 
0404+  1B7C 99 99 99 81   .DB     $99,$99,$99,$81,$99,$99,$99,$FF   
0404+  1B80 99 99 99 FF 
0405+  1B84 00 00 00 00   .DB     $00,$00,$00,$00,$00,$00,$00,$00   
0405+  1B88 00 00 00 00 
0406+  1B8C C3 E7 E7 E7   .DB     $C3,$E7,$E7,$E7,$E7,$E7,$C3,$FF   
0406+  1B90 E7 E7 C3 FF 
0407+  1B94 00 00 00 00   .DB     $00,$00,$00,$00,$00,$00,$00,$00   
0407+  1B98 00 00 00 00 
0408+  1B9C E1 F3 F3 F3   .DB     $E1,$F3,$F3,$F3,$F3,$93,$C7,$FF   
0408+  1BA0 F3 93 C7 FF 
0409+  1BA4 00 00 00 00   .DB     $00,$00,$00,$00,$00,$00,$00,$00   
0409+  1BA8 00 00 00 00 
0410+  1BAC 99 93 87 8F   .DB     $99,$93,$87,$8F,$87,$93,$99,$FF   
0410+  1BB0 87 93 99 FF 
0411+  1BB4 00 00 00 00   .DB     $00,$00,$00,$00,$00,$00,$00,$00   
0411+  1BB8 00 00 00 00 
0412+  1BBC 9F 9F 9F 9F   .DB     $9F,$9F,$9F,$9F,$9F,$9F,$81,$FF   
0412+  1BC0 9F 9F 81 FF 
0413+  1BC4 00 00 00 00   .DB     $00,$00,$00,$00,$00,$00,$00,$00   
0413+  1BC8 00 00 00 00 
0414+  1BCC 9C 88 80 94   .DB     $9C,$88,$80,$94,$9C,$9C,$9C,$FF   
0414+  1BD0 9C 9C 9C FF 
0415+  1BD4 00 00 00 00   .DB     $00,$00,$00,$00,$00,$00,$00,$00   
0415+  1BD8 00 00 00 00 
0416+  1BDC 99 89 81 81   .DB     $99,$89,$81,$81,$91,$99,$99,$FF   
0416+  1BE0 91 99 99 FF 
0417+  1BE4 00 00 00 00   .DB     $00,$00,$00,$00,$00,$00,$00,$00   
0417+  1BE8 00 00 00 00 
0418+  1BEC C3 99 99 99   .DB     $C3,$99,$99,$99,$99,$99,$C3,$FF   
0418+  1BF0 99 99 C3 FF 
0419+  1BF4 00 00 00 00   .DB     $00,$00,$00,$00,$00,$00,$00,$00   
0419+  1BF8 00 00 00 00 
0420+  1BFC 83 99 99 83   .DB     $83,$99,$99,$83,$9F,$9F,$9F,$FF   
0420+  1C00 9F 9F 9F FF 
0421+  1C04 00 00 00 00   .DB     $00,$00,$00,$00,$00,$00,$00,$00   
0421+  1C08 00 00 00 00 
0422+  1C0C C3 99 99 99   .DB     $C3,$99,$99,$99,$99,$C3,$F1,$FF   
0422+  1C10 99 C3 F1 FF 
0423+  1C14 00 00 00 00   .DB     $00,$00,$00,$00,$00,$00,$00,$00   
0423+  1C18 00 00 00 00 
0424+  1C1C 83 99 99 83   .DB     $83,$99,$99,$83,$87,$93,$99,$FF   
0424+  1C20 87 93 99 FF 
0425+  1C24 00 00 00 00   .DB     $00,$00,$00,$00,$00,$00,$00,$00   
0425+  1C28 00 00 00 00 
0426+  1C2C C3 99 9F C3   .DB     $C3,$99,$9F,$C3,$F9,$99,$C3,$FF   
0426+  1C30 F9 99 C3 FF 
0427+  1C34 00 00 00 00   .DB     $00,$00,$00,$00,$00,$00,$00,$00   
0427+  1C38 00 00 00 00 
0428+  1C3C 81 E7 E7 E7   .DB     $81,$E7,$E7,$E7,$E7,$E7,$E7,$FF   
0428+  1C40 E7 E7 E7 FF 
0429+  1C44 00 00 00 00   .DB     $00,$00,$00,$00,$00,$00,$00,$00   
0429+  1C48 00 00 00 00 
0430+  1C4C 99 99 99 99   .DB     $99,$99,$99,$99,$99,$99,$C3,$FF   
0430+  1C50 99 99 C3 FF 
0431+  1C54 00 00 00 00   .DB     $00,$00,$00,$00,$00,$00,$00,$00   
0431+  1C58 00 00 00 00 
0432+  1C5C 99 99 99 99   .DB     $99,$99,$99,$99,$99,$C3,$E7,$FF   
0432+  1C60 99 C3 E7 FF 
0433+  1C64 00 00 00 00   .DB     $00,$00,$00,$00,$00,$00,$00,$00   
0433+  1C68 00 00 00 00 
0434+  1C6C 9C 9C 9C 94   .DB     $9C,$9C,$9C,$94,$80,$88,$9C,$FF   
0434+  1C70 80 88 9C FF 
0435+  1C74 00 00 00 00   .DB     $00,$00,$00,$00,$00,$00,$00,$00   
0435+  1C78 00 00 00 00 
0436+  1C7C 99 99 C3 E7   .DB     $99,$99,$C3,$E7,$C3,$99,$99,$FF   
0436+  1C80 C3 99 99 FF 
0437+  1C84 00 00 00 00   .DB     $00,$00,$00,$00,$00,$00,$00,$00   
0437+  1C88 00 00 00 00 
0438+  1C8C 99 99 99 C3   .DB     $99,$99,$99,$C3,$E7,$E7,$E7,$FF   
0438+  1C90 E7 E7 E7 FF 
0439+  1C94 00 00 00 00   .DB     $00,$00,$00,$00,$00,$00,$00,$00   
0439+  1C98 00 00 00 00 
0440+  1C9C 81 F9 F3 E7   .DB     $81,$F9,$F3,$E7,$CF,$9F,$81,$FF   
0440+  1CA0 CF 9F 81 FF 
0441+  1CA4 00 00 00 00   .DB     $00,$00,$00,$00,$00,$00,$00,$00   
0441+  1CA8 00 00 00 00 
0442+  1CAC E7 E7 E7 00   .DB     $E7,$E7,$E7,$00,$00,$E7,$E7,$E7   
0442+  1CB0 00 E7 E7 E7 
0443+  1CB4 00 00 00 00   .DB     $00,$00,$00,$00,$00,$00,$00,$00   
0443+  1CB8 00 00 00 00 
0444+  1CBC 3F 3F CF CF   .DB     $3F,$3F,$CF,$CF,$3F,$3F,$CF,$CF   
0444+  1CC0 3F 3F CF CF 
0445+  1CC4 00 00 00 00   .DB     $00,$00,$00,$00,$00,$00,$00,$00   
0445+  1CC8 00 00 00 00 
0446+  1CCC E7 E7 E7 E7   .DB     $E7,$E7,$E7,$E7,$E7,$E7,$E7,$E7   
0446+  1CD0 E7 E7 E7 E7 
0447+  1CD4 00 00 00 00   .DB     $00,$00,$00,$00,$00,$00,$00,$00   
0447+  1CD8 00 00 00 00 
0448+  1CDC CC CC 33 33   .DB     $CC,$CC,$33,$33,$CC,$CC,$33,$33   
0448+  1CE0 CC CC 33 33 
0449+  1CE4 00 00 00 00   .DB     $00,$00,$00,$00,$00,$00,$00,$00   
0449+  1CE8 00 00 00 00 
0450+  1CEC CC 66 33 99   .DB     $CC,$66,$33,$99,$CC,$66,$33,$99   
0450+  1CF0 CC 66 33 99 
0451+  1CF4 00 00 00 00   .DB     $00,$00,$00,$00,$00,$00,$00,$00   
0451+  1CF8 00 00 00 00 
0452+  1CFC FF FF FF FF   .DB     $FF,$FF,$FF,$FF,$FF,$FF,$FF,$FF   
0452+  1D00 FF FF FF FF 
0453+  1D04 00 00 00 00   .DB     $00,$00,$00,$00,$00,$00,$00,$00   
0453+  1D08 00 00 00 00 
0454+  1D0C 0F 0F 0F 0F   .DB     $0F,$0F,$0F,$0F,$0F,$0F,$0F,$0F   
0454+  1D10 0F 0F 0F 0F 
0455+  1D14 00 00 00 00   .DB     $00,$00,$00,$00,$00,$00,$00,$00   
0455+  1D18 00 00 00 00 
0456+  1D1C FF FF FF FF   .DB     $FF,$FF,$FF,$FF,$00,$00,$00,$00   
0456+  1D20 00 00 00 00 
0457+  1D24 00 00 00 00   .DB     $00,$00,$00,$00,$00,$00,$00,$00   
0457+  1D28 00 00 00 00 
0458+  1D2C 00 FF FF FF   .DB     $00,$FF,$FF,$FF,$FF,$FF,$FF,$FF   
0458+  1D30 FF FF FF FF 
0459+  1D34 00 00 00 00   .DB     $00,$00,$00,$00,$00,$00,$00,$00   
0459+  1D38 00 00 00 00 
0460+  1D3C FF FF FF FF   .DB     $FF,$FF,$FF,$FF,$FF,$FF,$FF,$00   
0460+  1D40 FF FF FF 00 
0461+  1D44 00 00 00 00   .DB     $00,$00,$00,$00,$00,$00,$00,$00   
0461+  1D48 00 00 00 00 
0462+  1D4C 3F 3F 3F 3F   .DB     $3F,$3F,$3F,$3F,$3F,$3F,$3F,$3F   
0462+  1D50 3F 3F 3F 3F 
0463+  1D54 00 00 00 00   .DB     $00,$00,$00,$00,$00,$00,$00,$00   
0463+  1D58 00 00 00 00 
0464+  1D5C 33 33 CC CC   .DB     $33,$33,$CC,$CC,$33,$33,$CC,$CC   
0464+  1D60 33 33 CC CC 
0465+  1D64 00 00 00 00   .DB     $00,$00,$00,$00,$00,$00,$00,$00   
0465+  1D68 00 00 00 00 
0466+  1D6C FC FC FC FC   .DB     $FC,$FC,$FC,$FC,$FC,$FC,$FC,$FC   
0466+  1D70 FC FC FC FC 
0467+  1D74 00 00 00 00   .DB     $00,$00,$00,$00,$00,$00,$00,$00   
0467+  1D78 00 00 00 00 
0468+  1D7C FF FF FF FF   .DB     $FF,$FF,$FF,$FF,$33,$33,$CC,$CC   
0468+  1D80 33 33 CC CC 
0469+  1D84 00 00 00 00   .DB     $00,$00,$00,$00,$00,$00,$00,$00   
0469+  1D88 00 00 00 00 
0470+  1D8C 33 66 CC 99   .DB     $33,$66,$CC,$99,$33,$66,$CC,$99   
0470+  1D90 33 66 CC 99 
0471+  1D94 00 00 00 00   .DB     $00,$00,$00,$00,$00,$00,$00,$00   
0471+  1D98 00 00 00 00 
0472+  1D9C FC FC FC FC   .DB     $FC,$FC,$FC,$FC,$FC,$FC,$FC,$FC   
0472+  1DA0 FC FC FC FC 
0473+  1DA4 00 00 00 00   .DB     $00,$00,$00,$00,$00,$00,$00,$00   
0473+  1DA8 00 00 00 00 
0474+  1DAC E7 E7 E7 E0   .DB     $E7,$E7,$E7,$E0,$E0,$E7,$E7,$E7   
0474+  1DB0 E0 E7 E7 E7 
0475+  1DB4 00 00 00 00   .DB     $00,$00,$00,$00,$00,$00,$00,$00   
0475+  1DB8 00 00 00 00 
0476+  1DBC FF FF FF FF   .DB     $FF,$FF,$FF,$FF,$F0,$F0,$F0,$F0   
0476+  1DC0 F0 F0 F0 F0 
0477+  1DC4 00 00 00 00   .DB     $00,$00,$00,$00,$00,$00,$00,$00   
0477+  1DC8 00 00 00 00 
0478+  1DCC E7 E7 E7 E0   .DB     $E7,$E7,$E7,$E0,$E0,$FF,$FF,$FF   
0478+  1DD0 E0 FF FF FF 
0479+  1DD4 00 00 00 00   .DB     $00,$00,$00,$00,$00,$00,$00,$00   
0479+  1DD8 00 00 00 00 
0480+  1DDC FF FF FF 07   .DB     $FF,$FF,$FF,$07,$07,$E7,$E7,$E7   
0480+  1DE0 07 E7 E7 E7 
0481+  1DE4 00 00 00 00   .DB     $00,$00,$00,$00,$00,$00,$00,$00   
0481+  1DE8 00 00 00 00 
0482+  1DEC FF FF FF FF   .DB     $FF,$FF,$FF,$FF,$FF,$FF,$00,$00   
0482+  1DF0 FF FF 00 00 
0483+  1DF4 00 00 00 00   .DB     $00,$00,$00,$00,$00,$00,$00,$00   
0483+  1DF8 00 00 00 00 
0484+  1DFC FF FF FF E0   .DB     $FF,$FF,$FF,$E0,$E0,$E7,$E7,$E7   
0484+  1E00 E0 E7 E7 E7 
0485+  1E04 00 00 00 00   .DB     $00,$00,$00,$00,$00,$00,$00,$00   
0485+  1E08 00 00 00 00 
0486+  1E0C E7 E7 E7 00   .DB     $E7,$E7,$E7,$00,$00,$FF,$FF,$FF   
0486+  1E10 00 FF FF FF 
0487+  1E14 00 00 00 00   .DB     $00,$00,$00,$00,$00,$00,$00,$00   
0487+  1E18 00 00 00 00 
0488+  1E1C FF FF FF 00   .DB     $FF,$FF,$FF,$00,$00,$E7,$E7,$E7   
0488+  1E20 00 E7 E7 E7 
0489+  1E24 00 00 00 00   .DB     $00,$00,$00,$00,$00,$00,$00,$00   
0489+  1E28 00 00 00 00 
0490+  1E2C E7 E7 E7 07   .DB     $E7,$E7,$E7,$07,$07,$E7,$E7,$E7   
0490+  1E30 07 E7 E7 E7 
0491+  1E34 00 00 00 00   .DB     $00,$00,$00,$00,$00,$00,$00,$00   
0491+  1E38 00 00 00 00 
0492+  1E3C 3F 3F 3F 3F   .DB     $3F,$3F,$3F,$3F,$3F,$3F,$3F,$3F   
0492+  1E40 3F 3F 3F 3F 
0493+  1E44 00 00 00 00   .DB     $00,$00,$00,$00,$00,$00,$00,$00   
0493+  1E48 00 00 00 00 
0494+  1E4C 1F 1F 1F 1F   .DB     $1F,$1F,$1F,$1F,$1F,$1F,$1F,$1F   
0494+  1E50 1F 1F 1F 1F 
0495+  1E54 00 00 00 00   .DB     $00,$00,$00,$00,$00,$00,$00,$00   
0495+  1E58 00 00 00 00 
0496+  1E5C F8 F8 F8 F8   .DB     $F8,$F8,$F8,$F8,$F8,$F8,$F8,$F8   
0496+  1E60 F8 F8 F8 F8 
0497+  1E64 00 00 00 00   .DB     $00,$00,$00,$00,$00,$00,$00,$00   
0497+  1E68 00 00 00 00 
0498+  1E6C 00 00 FF FF   .DB     $00,$00,$FF,$FF,$FF,$FF,$FF,$FF   
0498+  1E70 FF FF FF FF 
0499+  1E74 00 00 00 00   .DB     $00,$00,$00,$00,$00,$00,$00,$00   
0499+  1E78 00 00 00 00 
0500+  1E7C 00 00 00 FF   .DB     $00,$00,$00,$FF,$FF,$FF,$FF,$FF   
0500+  1E80 FF FF FF FF 
0501+  1E84 00 00 00 00   .DB     $00,$00,$00,$00,$00,$00,$00,$00   
0501+  1E88 00 00 00 00 
0502+  1E8C FF FF FF FF   .DB     $FF,$FF,$FF,$FF,$FF,$00,$00,$00   
0502+  1E90 FF 00 00 00 
0503+  1E94 00 00 00 00   .DB     $00,$00,$00,$00,$00,$00,$00,$00   
0503+  1E98 00 00 00 00 
0504+  1E9C FE FC F9 93   .DB     $FE,$FC,$F9,$93,$87,$8F,$9F,$FF   
0504+  1EA0 87 8F 9F FF 
0505+  1EA4 00 00 00 00   .DB     $00,$00,$00,$00,$00,$00,$00,$00   
0505+  1EA8 00 00 00 00 
0506+  1EAC FF FF FF FF   .DB     $FF,$FF,$FF,$FF,$0F,$0F,$0F,$0F   
0506+  1EB0 0F 0F 0F 0F 
0507+  1EB4 00 00 00 00   .DB     $00,$00,$00,$00,$00,$00,$00,$00   
0507+  1EB8 00 00 00 00 
0508+  1EBC F0 F0 F0 F0   .DB     $F0,$F0,$F0,$F0,$FF,$FF,$FF,$FF   
0508+  1EC0 FF FF FF FF 
0509+  1EC4 00 00 00 00   .DB     $00,$00,$00,$00,$00,$00,$00,$00   
0509+  1EC8 00 00 00 00 
0510+  1ECC E7 E7 E7 07   .DB     $E7,$E7,$E7,$07,$07,$FF,$FF,$FF   
0510+  1ED0 07 FF FF FF 
0511+  1ED4 00 00 00 00   .DB     $00,$00,$00,$00,$00,$00,$00,$00   
0511+  1ED8 00 00 00 00 
0512+  1EDC 0F 0F 0F 0F   .DB     $0F,$0F,$0F,$0F,$FF,$FF,$FF,$FF   
0512+  1EE0 FF FF FF FF 
0513+  1EE4 00 00 00 00   .DB     $00,$00,$00,$00,$00,$00,$00,$00   
0513+  1EE8 00 00 00 00 
0514+  1EEC 0F 0F 0F 0F   .DB     $0F,$0F,$0F,$0F,$F0,$F0,$F0,$F0   
0514+  1EF0 F0 F0 F0 F0 
0515+  1EF4 00 00 00 00   .DB     $00,$00,$00,$00,$00,$00,$00,$00   
0515+  1EF8 00 00 00 00 
0516+  1EFC 3C 66 6E 6E   .DB     $3C,$66,$6E,$6E,$60,$62,$3C,$00   
0516+  1F00 60 62 3C 00 
0517+  1F04 00 00 00 00   .DB     $00,$00,$00,$00,$00,$00,$00,$00   
0517+  1F08 00 00 00 00 
0518+  1F0C 18 3C 66 7E   .DB     $18,$3C,$66,$7E,$66,$66,$66,$00   
0518+  1F10 66 66 66 00 
0519+  1F14 00 00 00 00   .DB     $00,$00,$00,$00,$00,$00,$00,$00   
0519+  1F18 00 00 00 00 
0520+  1F1C 7C 66 66 7C   .DB     $7C,$66,$66,$7C,$66,$66,$7C,$00   
0520+  1F20 66 66 7C 00 
0521+  1F24 00 00 00 00   .DB     $00,$00,$00,$00,$00,$00,$00,$00   
0521+  1F28 00 00 00 00 
0522+  1F2C 3C 66 60 60   .DB     $3C,$66,$60,$60,$60,$66,$3C,$00   
0522+  1F30 60 66 3C 00 
0523+  1F34 00 00 00 00   .DB     $00,$00,$00,$00,$00,$00,$00,$00   
0523+  1F38 00 00 00 00 
0524+  1F3C 78 6C 66 66   .DB     $78,$6C,$66,$66,$66,$6C,$78,$00   
0524+  1F40 66 6C 78 00 
0525+  1F44 00 00 00 00   .DB     $00,$00,$00,$00,$00,$00,$00,$00   
0525+  1F48 00 00 00 00 
0526+  1F4C 7E 60 60 78   .DB     $7E,$60,$60,$78,$60,$60,$7E,$00   
0526+  1F50 60 60 7E 00 
0527+  1F54 00 00 00 00   .DB     $00,$00,$00,$00,$00,$00,$00,$00   
0527+  1F58 00 00 00 00 
0528+  1F5C 7E 60 60 78   .DB     $7E,$60,$60,$78,$60,$60,$60,$00   
0528+  1F60 60 60 60 00 
0529+  1F64 00 00 00 00   .DB     $00,$00,$00,$00,$00,$00,$00,$00   
0529+  1F68 00 00 00 00 
0530+  1F6C 3C 66 60 6E   .DB     $3C,$66,$60,$6E,$66,$66,$3C,$00   
0530+  1F70 66 66 3C 00 
0531+  1F74 00 00 00 00   .DB     $00,$00,$00,$00,$00,$00,$00,$00   
0531+  1F78 00 00 00 00 
0532+  1F7C 66 66 66 7E   .DB     $66,$66,$66,$7E,$66,$66,$66,$00   
0532+  1F80 66 66 66 00 
0533+  1F84 00 00 00 00   .DB     $00,$00,$00,$00,$00,$00,$00,$00   
0533+  1F88 00 00 00 00 
0534+  1F8C 3C 18 18 18   .DB     $3C,$18,$18,$18,$18,$18,$3C,$00   
0534+  1F90 18 18 3C 00 
0535+  1F94 00 00 00 00   .DB     $00,$00,$00,$00,$00,$00,$00,$00   
0535+  1F98 00 00 00 00 
0536+  1F9C 1E 0C 0C 0C   .DB     $1E,$0C,$0C,$0C,$0C,$6C,$38,$00   
0536+  1FA0 0C 6C 38 00 
0537+  1FA4 00 00 00 00   .DB     $00,$00,$00,$00,$00,$00,$00,$00   
0537+  1FA8 00 00 00 00 
0538+  1FAC 66 6C 78 70   .DB     $66,$6C,$78,$70,$78,$6C,$66,$00   
0538+  1FB0 78 6C 66 00 
0539+  1FB4 00 00 00 00   .DB     $00,$00,$00,$00,$00,$00,$00,$00   
0539+  1FB8 00 00 00 00 
0540+  1FBC 60 60 60 60   .DB     $60,$60,$60,$60,$60,$60,$7E,$00   
0540+  1FC0 60 60 7E 00 
0541+  1FC4 00 00 00 00   .DB     $00,$00,$00,$00,$00,$00,$00,$00   
0541+  1FC8 00 00 00 00 
0542+  1FCC 63 77 7F 6B   .DB     $63,$77,$7F,$6B,$63,$63,$63,$00   
0542+  1FD0 63 63 63 00 
0543+  1FD4 00 00 00 00   .DB     $00,$00,$00,$00,$00,$00,$00,$00   
0543+  1FD8 00 00 00 00 
0544+  1FDC 66 76 7E 7E   .DB     $66,$76,$7E,$7E,$6E,$66,$66,$00   
0544+  1FE0 6E 66 66 00 
0545+  1FE4 00 00 00 00   .DB     $00,$00,$00,$00,$00,$00,$00,$00   
0545+  1FE8 00 00 00 00 
0546+  1FEC 3C 66 66 66   .DB     $3C,$66,$66,$66,$66,$66,$3C,$00   
0546+  1FF0 66 66 3C 00 
0547+  1FF4 00 00 00 00   .DB     $00,$00,$00,$00,$00,$00,$00,$00   
0547+  1FF8 00 00 00 00 
0548+  1FFC 7C 66 66 7C   .DB     $7C,$66,$66,$7C,$60,$60,$60,$00   
0548+  2000 60 60 60 00 
0549+  2004 00 00 00 00   .DB     $00,$00,$00,$00,$00,$00,$00,$00   
0549+  2008 00 00 00 00 
0550+  200C 3C 66 66 66   .DB     $3C,$66,$66,$66,$66,$3C,$0E,$00   
0550+  2010 66 3C 0E 00 
0551+  2014 00 00 00 00   .DB     $00,$00,$00,$00,$00,$00,$00,$00   
0551+  2018 00 00 00 00 
0552+  201C 7C 66 66 7C   .DB     $7C,$66,$66,$7C,$78,$6C,$66,$00   
0552+  2020 78 6C 66 00 
0553+  2024 00 00 00 00   .DB     $00,$00,$00,$00,$00,$00,$00,$00   
0553+  2028 00 00 00 00 
0554+  202C 3C 66 60 3C   .DB     $3C,$66,$60,$3C,$06,$66,$3C,$00   
0554+  2030 06 66 3C 00 
0555+  2034 00 00 00 00   .DB     $00,$00,$00,$00,$00,$00,$00,$00   
0555+  2038 00 00 00 00 
0556+  203C 7E 18 18 18   .DB     $7E,$18,$18,$18,$18,$18,$18,$00   
0556+  2040 18 18 18 00 
0557+  2044 00 00 00 00   .DB     $00,$00,$00,$00,$00,$00,$00,$00   
0557+  2048 00 00 00 00 
0558+  204C 66 66 66 66   .DB     $66,$66,$66,$66,$66,$66,$3C,$00   
0558+  2050 66 66 3C 00 
0559+  2054 00 00 00 00   .DB     $00,$00,$00,$00,$00,$00,$00,$00   
0559+  2058 00 00 00 00 
0560+  205C 66 66 66 66   .DB     $66,$66,$66,$66,$66,$3C,$18,$00   
0560+  2060 66 3C 18 00 
0561+  2064 00 00 00 00   .DB     $00,$00,$00,$00,$00,$00,$00,$00   
0561+  2068 00 00 00 00 
0562+  206C 63 63 63 6B   .DB     $63,$63,$63,$6B,$7F,$77,$63,$00   
0562+  2070 7F 77 63 00 
0563+  2074 00 00 00 00   .DB     $00,$00,$00,$00,$00,$00,$00,$00   
0563+  2078 00 00 00 00 
0564+  207C 66 66 3C 18   .DB     $66,$66,$3C,$18,$3C,$66,$66,$00   
0564+  2080 3C 66 66 00 
0565+  2084 00 00 00 00   .DB     $00,$00,$00,$00,$00,$00,$00,$00   
0565+  2088 00 00 00 00 
0566+  208C 66 66 66 3C   .DB     $66,$66,$66,$3C,$18,$18,$18,$00   
0566+  2090 18 18 18 00 
0567+  2094 00 00 00 00   .DB     $00,$00,$00,$00,$00,$00,$00,$00   
0567+  2098 00 00 00 00 
0568+  209C 7E 06 0C 18   .DB     $7E,$06,$0C,$18,$30,$60,$7E,$00   
0568+  20A0 30 60 7E 00 
0569+  20A4 00 00 00 00   .DB     $00,$00,$00,$00,$00,$00,$00,$00   
0569+  20A8 00 00 00 00 
0570+  20AC 3C 30 30 30   .DB     $3C,$30,$30,$30,$30,$30,$3C,$00   
0570+  20B0 30 30 3C 00 
0571+  20B4 00 00 00 00   .DB     $00,$00,$00,$00,$00,$00,$00,$00   
0571+  20B8 00 00 00 00 
0572+  20BC 0C 12 30 7C   .DB     $0C,$12,$30,$7C,$30,$62,$FC,$00   
0572+  20C0 30 62 FC 00 
0573+  20C4 00 00 00 00   .DB     $00,$00,$00,$00,$00,$00,$00,$00   
0573+  20C8 00 00 00 00 
0574+  20CC 3C 0C 0C 0C   .DB     $3C,$0C,$0C,$0C,$0C,$0C,$3C,$00   
0574+  20D0 0C 0C 3C 00 
0575+  20D4 00 00 00 00   .DB     $00,$00,$00,$00,$00,$00,$00,$00   
0575+  20D8 00 00 00 00 
0576+  20DC 00 18 3C 7E   .DB     $00,$18,$3C,$7E,$18,$18,$18,$18   
0576+  20E0 18 18 18 18 
0577+  20E4 00 00 00 00   .DB     $00,$00,$00,$00,$00,$00,$00,$00   
0577+  20E8 00 00 00 00 
0578+  20EC 00 10 30 7F   .DB     $00,$10,$30,$7F,$7F,$30,$10,$00   
0578+  20F0 7F 30 10 00 
0579+  20F4 00 00 00 00   .DB     $00,$00,$00,$00,$00,$00,$00,$00   
0579+  20F8 00 00 00 00 
0580+  20FC 00 00 00 00   .DB     $00,$00,$00,$00,$00,$00,$00,$00   
0580+  2100 00 00 00 00 
0581+  2104 00 00 00 00   .DB     $00,$00,$00,$00,$00,$00,$00,$00   
0581+  2108 00 00 00 00 
0582+  210C 18 18 18 18   .DB     $18,$18,$18,$18,$00,$00,$18,$00   
0582+  2110 00 00 18 00 
0583+  2114 00 00 00 00   .DB     $00,$00,$00,$00,$00,$00,$00,$00   
0583+  2118 00 00 00 00 
0584+  211C 66 66 66 00   .DB     $66,$66,$66,$00,$00,$00,$00,$00   
0584+  2120 00 00 00 00 
0585+  2124 00 00 00 00   .DB     $00,$00,$00,$00,$00,$00,$00,$00   
0585+  2128 00 00 00 00 
0586+  212C 66 66 FF 66   .DB     $66,$66,$FF,$66,$FF,$66,$66,$00   
0586+  2130 FF 66 66 00 
0587+  2134 00 00 00 00   .DB     $00,$00,$00,$00,$00,$00,$00,$00   
0587+  2138 00 00 00 00 
0588+  213C 18 3E 60 3C   .DB     $18,$3E,$60,$3C,$06,$7C,$18,$00   
0588+  2140 06 7C 18 00 
0589+  2144 00 00 00 00   .DB     $00,$00,$00,$00,$00,$00,$00,$00   
0589+  2148 00 00 00 00 
0590+  214C 62 66 0C 18   .DB     $62,$66,$0C,$18,$30,$66,$46,$00   
0590+  2150 30 66 46 00 
0591+  2154 00 00 00 00   .DB     $00,$00,$00,$00,$00,$00,$00,$00   
0591+  2158 00 00 00 00 
0592+  215C 3C 66 3C 38   .DB     $3C,$66,$3C,$38,$67,$66,$3F,$00   
0592+  2160 67 66 3F 00 
0593+  2164 00 00 00 00   .DB     $00,$00,$00,$00,$00,$00,$00,$00   
0593+  2168 00 00 00 00 
0594+  216C 06 0C 18 00   .DB     $06,$0C,$18,$00,$00,$00,$00,$00   
0594+  2170 00 00 00 00 
0595+  2174 00 00 00 00   .DB     $00,$00,$00,$00,$00,$00,$00,$00   
0595+  2178 00 00 00 00 
0596+  217C 0C 18 30 30   .DB     $0C,$18,$30,$30,$30,$18,$0C,$00   
0596+  2180 30 18 0C 00 
0597+  2184 00 00 00 00   .DB     $00,$00,$00,$00,$00,$00,$00,$00   
0597+  2188 00 00 00 00 
0598+  218C 30 18 0C 0C   .DB     $30,$18,$0C,$0C,$0C,$18,$30,$00   
0598+  2190 0C 18 30 00 
0599+  2194 00 00 00 00   .DB     $00,$00,$00,$00,$00,$00,$00,$00   
0599+  2198 00 00 00 00 
0600+  219C 00 66 3C FF   .DB     $00,$66,$3C,$FF,$3C,$66,$00,$00   
0600+  21A0 3C 66 00 00 
0601+  21A4 00 00 00 00   .DB     $00,$00,$00,$00,$00,$00,$00,$00   
0601+  21A8 00 00 00 00 
0602+  21AC 00 18 18 7E   .DB     $00,$18,$18,$7E,$18,$18,$00,$00   
0602+  21B0 18 18 00 00 
0603+  21B4 00 00 00 00   .DB     $00,$00,$00,$00,$00,$00,$00,$00   
0603+  21B8 00 00 00 00 
0604+  21BC 00 00 00 00   .DB     $00,$00,$00,$00,$00,$18,$18,$30   
0604+  21C0 00 18 18 30 
0605+  21C4 00 00 00 00   .DB     $00,$00,$00,$00,$00,$00,$00,$00   
0605+  21C8 00 00 00 00 
0606+  21CC 00 00 00 7E   .DB     $00,$00,$00,$7E,$00,$00,$00,$00   
0606+  21D0 00 00 00 00 
0607+  21D4 00 00 00 00   .DB     $00,$00,$00,$00,$00,$00,$00,$00   
0607+  21D8 00 00 00 00 
0608+  21DC 00 00 00 00   .DB     $00,$00,$00,$00,$00,$18,$18,$00   
0608+  21E0 00 18 18 00 
0609+  21E4 00 00 00 00   .DB     $00,$00,$00,$00,$00,$00,$00,$00   
0609+  21E8 00 00 00 00 
0610+  21EC 00 03 06 0C   .DB     $00,$03,$06,$0C,$18,$30,$60,$00   
0610+  21F0 18 30 60 00 
0611+  21F4 00 00 00 00   .DB     $00,$00,$00,$00,$00,$00,$00,$00   
0611+  21F8 00 00 00 00 
0612+  21FC 3C 66 6E 76   .DB     $3C,$66,$6E,$76,$66,$66,$3C,$00   
0612+  2200 66 66 3C 00 
0613+  2204 00 00 00 00   .DB     $00,$00,$00,$00,$00,$00,$00,$00   
0613+  2208 00 00 00 00 
0614+  220C 18 18 38 18   .DB     $18,$18,$38,$18,$18,$18,$7E,$00   
0614+  2210 18 18 7E 00 
0615+  2214 00 00 00 00   .DB     $00,$00,$00,$00,$00,$00,$00,$00   
0615+  2218 00 00 00 00 
0616+  221C 3C 66 06 0C   .DB     $3C,$66,$06,$0C,$30,$60,$7E,$00   
0616+  2220 30 60 7E 00 
0617+  2224 00 00 00 00   .DB     $00,$00,$00,$00,$00,$00,$00,$00   
0617+  2228 00 00 00 00 
0618+  222C 3C 66 06 1C   .DB     $3C,$66,$06,$1C,$06,$66,$3C,$00   
0618+  2230 06 66 3C 00 
0619+  2234 00 00 00 00   .DB     $00,$00,$00,$00,$00,$00,$00,$00   
0619+  2238 00 00 00 00 
0620+  223C 06 0E 1E 66   .DB     $06,$0E,$1E,$66,$7F,$06,$06,$00   
0620+  2240 7F 06 06 00 
0621+  2244 00 00 00 00   .DB     $00,$00,$00,$00,$00,$00,$00,$00   
0621+  2248 00 00 00 00 
0622+  224C 7E 60 7C 06   .DB     $7E,$60,$7C,$06,$06,$66,$3C,$00   
0622+  2250 06 66 3C 00 
0623+  2254 00 00 00 00   .DB     $00,$00,$00,$00,$00,$00,$00,$00   
0623+  2258 00 00 00 00 
0624+  225C 3C 66 60 7C   .DB     $3C,$66,$60,$7C,$66,$66,$3C,$00   
0624+  2260 66 66 3C 00 
0625+  2264 00 00 00 00   .DB     $00,$00,$00,$00,$00,$00,$00,$00   
0625+  2268 00 00 00 00 
0626+  226C 7E 66 0C 18   .DB     $7E,$66,$0C,$18,$18,$18,$18,$00   
0626+  2270 18 18 18 00 
0627+  2274 00 00 00 00   .DB     $00,$00,$00,$00,$00,$00,$00,$00   
0627+  2278 00 00 00 00 
0628+  227C 3C 66 66 3C   .DB     $3C,$66,$66,$3C,$66,$66,$3C,$00   
0628+  2280 66 66 3C 00 
0629+  2284 00 00 00 00   .DB     $00,$00,$00,$00,$00,$00,$00,$00   
0629+  2288 00 00 00 00 
0630+  228C 3C 66 66 3E   .DB     $3C,$66,$66,$3E,$06,$66,$3C,$00   
0630+  2290 06 66 3C 00 
0631+  2294 00 00 00 00   .DB     $00,$00,$00,$00,$00,$00,$00,$00   
0631+  2298 00 00 00 00 
0632+  229C 00 00 18 00   .DB     $00,$00,$18,$00,$00,$18,$00,$00   
0632+  22A0 00 18 00 00 
0633+  22A4 00 00 00 00   .DB     $00,$00,$00,$00,$00,$00,$00,$00   
0633+  22A8 00 00 00 00 
0634+  22AC 00 00 18 00   .DB     $00,$00,$18,$00,$00,$18,$18,$30   
0634+  22B0 00 18 18 30 
0635+  22B4 00 00 00 00   .DB     $00,$00,$00,$00,$00,$00,$00,$00   
0635+  22B8 00 00 00 00 
0636+  22BC 0E 18 30 60   .DB     $0E,$18,$30,$60,$30,$18,$0E,$00   
0636+  22C0 30 18 0E 00 
0637+  22C4 00 00 00 00   .DB     $00,$00,$00,$00,$00,$00,$00,$00   
0637+  22C8 00 00 00 00 
0638+  22CC 00 00 7E 00   .DB     $00,$00,$7E,$00,$7E,$00,$00,$00   
0638+  22D0 7E 00 00 00 
0639+  22D4 00 00 00 00   .DB     $00,$00,$00,$00,$00,$00,$00,$00   
0639+  22D8 00 00 00 00 
0640+  22DC 70 18 0C 06   .DB     $70,$18,$0C,$06,$0C,$18,$70,$00   
0640+  22E0 0C 18 70 00 
0641+  22E4 00 00 00 00   .DB     $00,$00,$00,$00,$00,$00,$00,$00   
0641+  22E8 00 00 00 00 
0642+  22EC 3C 66 06 0C   .DB     $3C,$66,$06,$0C,$18,$00,$18,$00   
0642+  22F0 18 00 18 00 
0643+  22F4 00 00 00 00   .DB     $00,$00,$00,$00,$00,$00,$00,$00   
0643+  22F8 00 00 00 00 
0644+  22FC 00 00 00 FF   .DB     $00,$00,$00,$FF,$FF,$00,$00,$00   
0644+  2300 FF 00 00 00 
0645+  2304 00 00 00 00   .DB     $00,$00,$00,$00,$00,$00,$00,$00   
0645+  2308 00 00 00 00 
0646+  230C 08 1C 3E 7F   .DB     $08,$1C,$3E,$7F,$7F,$1C,$3E,$00   
0646+  2310 7F 1C 3E 00 
0647+  2314 00 00 00 00   .DB     $00,$00,$00,$00,$00,$00,$00,$00   
0647+  2318 00 00 00 00 
0648+  231C 18 18 18 18   .DB     $18,$18,$18,$18,$18,$18,$18,$18   
0648+  2320 18 18 18 18 
0649+  2324 00 00 00 00   .DB     $00,$00,$00,$00,$00,$00,$00,$00   
0649+  2328 00 00 00 00 
0650+  232C 00 00 00 FF   .DB     $00,$00,$00,$FF,$FF,$00,$00,$00   
0650+  2330 FF 00 00 00 
0651+  2334 00 00 00 00   .DB     $00,$00,$00,$00,$00,$00,$00,$00   
0651+  2338 00 00 00 00 
0652+  233C 00 00 FF FF   .DB     $00,$00,$FF,$FF,$00,$00,$00,$00   
0652+  2340 00 00 00 00 
0653+  2344 00 00 00 00   .DB     $00,$00,$00,$00,$00,$00,$00,$00   
0653+  2348 00 00 00 00 
0654+  234C 00 FF FF 00   .DB     $00,$FF,$FF,$00,$00,$00,$00,$00   
0654+  2350 00 00 00 00 
0655+  2354 00 00 00 00   .DB     $00,$00,$00,$00,$00,$00,$00,$00   
0655+  2358 00 00 00 00 
0656+  235C 00 00 00 00   .DB     $00,$00,$00,$00,$FF,$FF,$00,$00   
0656+  2360 FF FF 00 00 
0657+  2364 00 00 00 00   .DB     $00,$00,$00,$00,$00,$00,$00,$00   
0657+  2368 00 00 00 00 
0658+  236C 30 30 30 30   .DB     $30,$30,$30,$30,$30,$30,$30,$30   
0658+  2370 30 30 30 30 
0659+  2374 00 00 00 00   .DB     $00,$00,$00,$00,$00,$00,$00,$00   
0659+  2378 00 00 00 00 
0660+  237C 0C 0C 0C 0C   .DB     $0C,$0C,$0C,$0C,$0C,$0C,$0C,$0C   
0660+  2380 0C 0C 0C 0C 
0661+  2384 00 00 00 00   .DB     $00,$00,$00,$00,$00,$00,$00,$00   
0661+  2388 00 00 00 00 
0662+  238C 00 00 00 E0   .DB     $00,$00,$00,$E0,$F0,$38,$18,$18   
0662+  2390 F0 38 18 18 
0663+  2394 00 00 00 00   .DB     $00,$00,$00,$00,$00,$00,$00,$00   
0663+  2398 00 00 00 00 
0664+  239C 18 18 1C 0F   .DB     $18,$18,$1C,$0F,$07,$00,$00,$00   
0664+  23A0 07 00 00 00 
0665+  23A4 00 00 00 00   .DB     $00,$00,$00,$00,$00,$00,$00,$00   
0665+  23A8 00 00 00 00 
0666+  23AC 18 18 38 F0   .DB     $18,$18,$38,$F0,$E0,$00,$00,$00   
0666+  23B0 E0 00 00 00 
0667+  23B4 00 00 00 00   .DB     $00,$00,$00,$00,$00,$00,$00,$00   
0667+  23B8 00 00 00 00 
0668+  23BC C0 C0 C0 C0   .DB     $C0,$C0,$C0,$C0,$C0,$C0,$FF,$FF   
0668+  23C0 C0 C0 FF FF 
0669+  23C4 00 00 00 00   .DB     $00,$00,$00,$00,$00,$00,$00,$00   
0669+  23C8 00 00 00 00 
0670+  23CC C0 E0 70 38   .DB     $C0,$E0,$70,$38,$1C,$0E,$07,$03   
0670+  23D0 1C 0E 07 03 
0671+  23D4 00 00 00 00   .DB     $00,$00,$00,$00,$00,$00,$00,$00   
0671+  23D8 00 00 00 00 
0672+  23DC 03 07 0E 1C   .DB     $03,$07,$0E,$1C,$38,$70,$E0,$C0   
0672+  23E0 38 70 E0 C0 
0673+  23E4 00 00 00 00   .DB     $00,$00,$00,$00,$00,$00,$00,$00   
0673+  23E8 00 00 00 00 
0674+  23EC FF FF C0 C0   .DB     $FF,$FF,$C0,$C0,$C0,$C0,$C0,$C0   
0674+  23F0 C0 C0 C0 C0 
0675+  23F4 00 00 00 00   .DB     $00,$00,$00,$00,$00,$00,$00,$00   
0675+  23F8 00 00 00 00 
0676+  23FC FF FF 03 03   .DB     $FF,$FF,$03,$03,$03,$03,$03,$03   
0676+  2400 03 03 03 03 
0677+  2404 00 00 00 00   .DB     $00,$00,$00,$00,$00,$00,$00,$00   
0677+  2408 00 00 00 00 
0678+  240C 00 3C 7E 7E   .DB     $00,$3C,$7E,$7E,$7E,$7E,$3C,$00   
0678+  2410 7E 7E 3C 00 
0679+  2414 00 00 00 00   .DB     $00,$00,$00,$00,$00,$00,$00,$00   
0679+  2418 00 00 00 00 
0680+  241C 00 00 00 00   .DB     $00,$00,$00,$00,$00,$FF,$FF,$00   
0680+  2420 00 FF FF 00 
0681+  2424 00 00 00 00   .DB     $00,$00,$00,$00,$00,$00,$00,$00   
0681+  2428 00 00 00 00 
0682+  242C 36 7F 7F 7F   .DB     $36,$7F,$7F,$7F,$3E,$1C,$08,$00   
0682+  2430 3E 1C 08 00 
0683+  2434 00 00 00 00   .DB     $00,$00,$00,$00,$00,$00,$00,$00   
0683+  2438 00 00 00 00 
0684+  243C 60 60 60 60   .DB     $60,$60,$60,$60,$60,$60,$60,$60   
0684+  2440 60 60 60 60 
0685+  2444 00 00 00 00   .DB     $00,$00,$00,$00,$00,$00,$00,$00   
0685+  2448 00 00 00 00 
0686+  244C 00 00 00 07   .DB     $00,$00,$00,$07,$0F,$1C,$18,$18   
0686+  2450 0F 1C 18 18 
0687+  2454 00 00 00 00   .DB     $00,$00,$00,$00,$00,$00,$00,$00   
0687+  2458 00 00 00 00 
0688+  245C C3 E7 7E 3C   .DB     $C3,$E7,$7E,$3C,$3C,$7E,$E7,$C3   
0688+  2460 3C 7E E7 C3 
0689+  2464 00 00 00 00   .DB     $00,$00,$00,$00,$00,$00,$00,$00   
0689+  2468 00 00 00 00 
0690+  246C 00 3C 7E 66   .DB     $00,$3C,$7E,$66,$66,$7E,$3C,$00   
0690+  2470 66 7E 3C 00 
0691+  2474 00 00 00 00   .DB     $00,$00,$00,$00,$00,$00,$00,$00   
0691+  2478 00 00 00 00 
0692+  247C 18 18 66 66   .DB     $18,$18,$66,$66,$18,$18,$3C,$00   
0692+  2480 18 18 3C 00 
0693+  2484 00 00 00 00   .DB     $00,$00,$00,$00,$00,$00,$00,$00   
0693+  2488 00 00 00 00 
0694+  248C 06 06 06 06   .DB     $06,$06,$06,$06,$06,$06,$06,$06   
0694+  2490 06 06 06 06 
0695+  2494 00 00 00 00   .DB     $00,$00,$00,$00,$00,$00,$00,$00   
0695+  2498 00 00 00 00 
0696+  249C 08 1C 3E 7F   .DB     $08,$1C,$3E,$7F,$3E,$1C,$08,$00   
0696+  24A0 3E 1C 08 00 
0697+  24A4 00 00 00 00   .DB     $00,$00,$00,$00,$00,$00,$00,$00   
0697+  24A8 00 00 00 00 
0698+  24AC 18 18 18 FF   .DB     $18,$18,$18,$FF,$FF,$18,$18,$18   
0698+  24B0 FF 18 18 18 
0699+  24B4 00 00 00 00   .DB     $00,$00,$00,$00,$00,$00,$00,$00   
0699+  24B8 00 00 00 00 
0700+  24BC C0 C0 30 30   .DB     $C0,$C0,$30,$30,$C0,$C0,$30,$30   
0700+  24C0 C0 C0 30 30 
0701+  24C4 00 00 00 00   .DB     $00,$00,$00,$00,$00,$00,$00,$00   
0701+  24C8 00 00 00 00 
0702+  24CC 18 18 18 18   .DB     $18,$18,$18,$18,$18,$18,$18,$18   
0702+  24D0 18 18 18 18 
0703+  24D4 00 00 00 00   .DB     $00,$00,$00,$00,$00,$00,$00,$00   
0703+  24D8 00 00 00 00 
0704+  24DC 00 00 03 3E   .DB     $00,$00,$03,$3E,$76,$36,$36,$00   
0704+  24E0 76 36 36 00 
0705+  24E4 00 00 00 00   .DB     $00,$00,$00,$00,$00,$00,$00,$00   
0705+  24E8 00 00 00 00 
0706+  24EC FF 7F 3F 1F   .DB     $FF,$7F,$3F,$1F,$0F,$07,$03,$01   
0706+  24F0 0F 07 03 01 
0707+  24F4 00 00 00 00   .DB     $00,$00,$00,$00,$00,$00,$00,$00   
0707+  24F8 00 00 00 00 
0708+  24FC 00 00 00 00   .DB     $00,$00,$00,$00,$00,$00,$00,$00   
0708+  2500 00 00 00 00 
0709+  2504 00 00 00 00   .DB     $00,$00,$00,$00,$00,$00,$00,$00   
0709+  2508 00 00 00 00 
0710+  250C F0 F0 F0 F0   .DB     $F0,$F0,$F0,$F0,$F0,$F0,$F0,$F0   
0710+  2510 F0 F0 F0 F0 
0711+  2514 00 00 00 00   .DB     $00,$00,$00,$00,$00,$00,$00,$00   
0711+  2518 00 00 00 00 
0712+  251C 00 00 00 00   .DB     $00,$00,$00,$00,$FF,$FF,$FF,$FF   
0712+  2520 FF FF FF FF 
0713+  2524 00 00 00 00   .DB     $00,$00,$00,$00,$00,$00,$00,$00   
0713+  2528 00 00 00 00 
0714+  252C FF 00 00 00   .DB     $FF,$00,$00,$00,$00,$00,$00,$00   
0714+  2530 00 00 00 00 
0715+  2534 00 00 00 00   .DB     $00,$00,$00,$00,$00,$00,$00,$00   
0715+  2538 00 00 00 00 
0716+  253C 00 00 00 00   .DB     $00,$00,$00,$00,$00,$00,$00,$FF   
0716+  2540 00 00 00 FF 
0717+  2544 00 00 00 00   .DB     $00,$00,$00,$00,$00,$00,$00,$00   
0717+  2548 00 00 00 00 
0718+  254C C0 C0 C0 C0   .DB     $C0,$C0,$C0,$C0,$C0,$C0,$C0,$C0   
0718+  2550 C0 C0 C0 C0 
0719+  2554 00 00 00 00   .DB     $00,$00,$00,$00,$00,$00,$00,$00   
0719+  2558 00 00 00 00 
0720+  255C CC CC 33 33   .DB     $CC,$CC,$33,$33,$CC,$CC,$33,$33   
0720+  2560 CC CC 33 33 
0721+  2564 00 00 00 00   .DB     $00,$00,$00,$00,$00,$00,$00,$00   
0721+  2568 00 00 00 00 
0722+  256C 03 03 03 03   .DB     $03,$03,$03,$03,$03,$03,$03,$03   
0722+  2570 03 03 03 03 
0723+  2574 00 00 00 00   .DB     $00,$00,$00,$00,$00,$00,$00,$00   
0723+  2578 00 00 00 00 
0724+  257C 00 00 00 00   .DB     $00,$00,$00,$00,$CC,$CC,$33,$33   
0724+  2580 CC CC 33 33 
0725+  2584 00 00 00 00   .DB     $00,$00,$00,$00,$00,$00,$00,$00   
0725+  2588 00 00 00 00 
0726+  258C FF FE FC F8   .DB     $FF,$FE,$FC,$F8,$F0,$E0,$C0,$80   
0726+  2590 F0 E0 C0 80 
0727+  2594 00 00 00 00   .DB     $00,$00,$00,$00,$00,$00,$00,$00   
0727+  2598 00 00 00 00 
0728+  259C 03 03 03 03   .DB     $03,$03,$03,$03,$03,$03,$03,$03   
0728+  25A0 03 03 03 03 
0729+  25A4 00 00 00 00   .DB     $00,$00,$00,$00,$00,$00,$00,$00   
0729+  25A8 00 00 00 00 
0730+  25AC 18 18 18 1F   .DB     $18,$18,$18,$1F,$1F,$18,$18,$18   
0730+  25B0 1F 18 18 18 
0731+  25B4 00 00 00 00   .DB     $00,$00,$00,$00,$00,$00,$00,$00   
0731+  25B8 00 00 00 00 
0732+  25BC 00 00 00 00   .DB     $00,$00,$00,$00,$0F,$0F,$0F,$0F   
0732+  25C0 0F 0F 0F 0F 
0733+  25C4 00 00 00 00   .DB     $00,$00,$00,$00,$00,$00,$00,$00   
0733+  25C8 00 00 00 00 
0734+  25CC 18 18 18 1F   .DB     $18,$18,$18,$1F,$1F,$00,$00,$00   
0734+  25D0 1F 00 00 00 
0735+  25D4 00 00 00 00   .DB     $00,$00,$00,$00,$00,$00,$00,$00   
0735+  25D8 00 00 00 00 
0736+  25DC 00 00 00 F8   .DB     $00,$00,$00,$F8,$F8,$18,$18,$18   
0736+  25E0 F8 18 18 18 
0737+  25E4 00 00 00 00   .DB     $00,$00,$00,$00,$00,$00,$00,$00   
0737+  25E8 00 00 00 00 
0738+  25EC 00 00 00 00   .DB     $00,$00,$00,$00,$00,$00,$FF,$FF   
0738+  25F0 00 00 FF FF 
0739+  25F4 00 00 00 00   .DB     $00,$00,$00,$00,$00,$00,$00,$00   
0739+  25F8 00 00 00 00 
0740+  25FC 00 00 00 1F   .DB     $00,$00,$00,$1F,$1F,$18,$18,$18   
0740+  2600 1F 18 18 18 
0741+  2604 00 00 00 00   .DB     $00,$00,$00,$00,$00,$00,$00,$00   
0741+  2608 00 00 00 00 
0742+  260C 18 18 18 FF   .DB     $18,$18,$18,$FF,$FF,$00,$00,$00   
0742+  2610 FF 00 00 00 
0743+  2614 00 00 00 00   .DB     $00,$00,$00,$00,$00,$00,$00,$00   
0743+  2618 00 00 00 00 
0744+  261C 00 00 00 FF   .DB     $00,$00,$00,$FF,$FF,$18,$18,$18   
0744+  2620 FF 18 18 18 
0745+  2624 00 00 00 00   .DB     $00,$00,$00,$00,$00,$00,$00,$00   
0745+  2628 00 00 00 00 
0746+  262C 18 18 18 F8   .DB     $18,$18,$18,$F8,$F8,$18,$18,$18   
0746+  2630 F8 18 18 18 
0747+  2634 00 00 00 00   .DB     $00,$00,$00,$00,$00,$00,$00,$00   
0747+  2638 00 00 00 00 
0748+  263C C0 C0 C0 C0   .DB     $C0,$C0,$C0,$C0,$C0,$C0,$C0,$C0   
0748+  2640 C0 C0 C0 C0 
0749+  2644 00 00 00 00   .DB     $00,$00,$00,$00,$00,$00,$00,$00   
0749+  2648 00 00 00 00 
0750+  264C E0 E0 E0 E0   .DB     $E0,$E0,$E0,$E0,$E0,$E0,$E0,$E0   
0750+  2650 E0 E0 E0 E0 
0751+  2654 00 00 00 00   .DB     $00,$00,$00,$00,$00,$00,$00,$00   
0751+  2658 00 00 00 00 
0752+  265C 07 07 07 07   .DB     $07,$07,$07,$07,$07,$07,$07,$07   
0752+  2660 07 07 07 07 
0753+  2664 00 00 00 00   .DB     $00,$00,$00,$00,$00,$00,$00,$00   
0753+  2668 00 00 00 00 
0754+  266C FF FF 00 00   .DB     $FF,$FF,$00,$00,$00,$00,$00,$00   
0754+  2670 00 00 00 00 
0755+  2674 00 00 00 00   .DB     $00,$00,$00,$00,$00,$00,$00,$00   
0755+  2678 00 00 00 00 
0756+  267C FF FF FF 00   .DB     $FF,$FF,$FF,$00,$00,$00,$00,$00   
0756+  2680 00 00 00 00 
0757+  2684 00 00 00 00   .DB     $00,$00,$00,$00,$00,$00,$00,$00   
0757+  2688 00 00 00 00 
0758+  268C 00 00 00 00   .DB     $00,$00,$00,$00,$00,$FF,$FF,$FF   
0758+  2690 00 FF FF FF 
0759+  2694 00 00 00 00   .DB     $00,$00,$00,$00,$00,$00,$00,$00   
0759+  2698 00 00 00 00 
0760+  269C 03 03 03 03   .DB     $03,$03,$03,$03,$03,$03,$FF,$FF   
0760+  26A0 03 03 FF FF 
0761+  26A4 00 00 00 00   .DB     $00,$00,$00,$00,$00,$00,$00,$00   
0761+  26A8 00 00 00 00 
0762+  26AC 00 00 00 00   .DB     $00,$00,$00,$00,$F0,$F0,$F0,$F0   
0762+  26B0 F0 F0 F0 F0 
0763+  26B4 00 00 00 00   .DB     $00,$00,$00,$00,$00,$00,$00,$00   
0763+  26B8 00 00 00 00 
0764+  26BC 0F 0F 0F 0F   .DB     $0F,$0F,$0F,$0F,$00,$00,$00,$00   
0764+  26C0 00 00 00 00 
0765+  26C4 00 00 00 00   .DB     $00,$00,$00,$00,$00,$00,$00,$00   
0765+  26C8 00 00 00 00 
0766+  26CC 18 18 18 F8   .DB     $18,$18,$18,$F8,$F8,$00,$00,$00   
0766+  26D0 F8 00 00 00 
0767+  26D4 00 00 00 00   .DB     $00,$00,$00,$00,$00,$00,$00,$00   
0767+  26D8 00 00 00 00 
0768+  26DC F0 F0 F0 F0   .DB     $F0,$F0,$F0,$F0,$00,$00,$00,$00   
0768+  26E0 00 00 00 00 
0769+  26E4 00 00 00 00   .DB     $00,$00,$00,$00,$00,$00,$00,$00   
0769+  26E8 00 00 00 00 
0770+  26EC F0 F0 F0 F0   .DB     $F0,$F0,$F0,$F0,$0F,$0F,$0F,$0F   
0770+  26F0 0F 0F 0F 0F 
0771+  26F4 00 00 00 00   .DB     $00,$00,$00,$00,$00,$00,$00,$00   
0771+  26F8 00 00 00 00 
0772+  26FC C3 99 91 91   .DB     $C3,$99,$91,$91,$9F,$99,$C3,$FF   
0772+  2700 9F 99 C3 FF 
0773+  2704 00 00 00 00   .DB     $00,$00,$00,$00,$00,$00,$00,$00   
0773+  2708 00 00 00 00 
0774+  270C E7 C3 99 81   .DB     $E7,$C3,$99,$81,$99,$99,$99,$FF   
0774+  2710 99 99 99 FF 
0775+  2714 00 00 00 00   .DB     $00,$00,$00,$00,$00,$00,$00,$00   
0775+  2718 00 00 00 00 
0776+  271C 83 99 99 83   .DB     $83,$99,$99,$83,$99,$99,$83,$FF   
0776+  2720 99 99 83 FF 
0777+  2724 00 00 00 00   .DB     $00,$00,$00,$00,$00,$00,$00,$00   
0777+  2728 00 00 00 00 
0778+  272C C3 99 9F 9F   .DB     $C3,$99,$9F,$9F,$9F,$99,$C3,$FF   
0778+  2730 9F 99 C3 FF 
0779+  2734 00 00 00 00   .DB     $00,$00,$00,$00,$00,$00,$00,$00   
0779+  2738 00 00 00 00 
0780+  273C 87 93 99 99   .DB     $87,$93,$99,$99,$99,$93,$87,$FF   
0780+  2740 99 93 87 FF 
0781+  2744 00 00 00 00   .DB     $00,$00,$00,$00,$00,$00,$00,$00   
0781+  2748 00 00 00 00 
0782+  274C 81 9F 9F 87   .DB     $81,$9F,$9F,$87,$9F,$9F,$81,$FF   
0782+  2750 9F 9F 81 FF 
0783+  2754 00 00 00 00   .DB     $00,$00,$00,$00,$00,$00,$00,$00   
0783+  2758 00 00 00 00 
0784+  275C 81 9F 9F 87   .DB     $81,$9F,$9F,$87,$9F,$9F,$9F,$FF   
0784+  2760 9F 9F 9F FF 
0785+  2764 00 00 00 00   .DB     $00,$00,$00,$00,$00,$00,$00,$00   
0785+  2768 00 00 00 00 
0786+  276C C3 99 9F 91   .DB     $C3,$99,$9F,$91,$99,$99,$C3,$FF   
0786+  2770 99 99 C3 FF 
0787+  2774 00 00 00 00   .DB     $00,$00,$00,$00,$00,$00,$00,$00   
0787+  2778 00 00 00 00 
0788+  277C 99 99 99 81   .DB     $99,$99,$99,$81,$99,$99,$99,$FF   
0788+  2780 99 99 99 FF 
0789+  2784 00 00 00 00   .DB     $00,$00,$00,$00,$00,$00,$00,$00   
0789+  2788 00 00 00 00 
0790+  278C C3 E7 E7 E7   .DB     $C3,$E7,$E7,$E7,$E7,$E7,$C3,$FF   
0790+  2790 E7 E7 C3 FF 
0791+  2794 00 00 00 00   .DB     $00,$00,$00,$00,$00,$00,$00,$00   
0791+  2798 00 00 00 00 
0792+  279C E1 F3 F3 F3   .DB     $E1,$F3,$F3,$F3,$F3,$93,$C7,$FF   
0792+  27A0 F3 93 C7 FF 
0793+  27A4 00 00 00 00   .DB     $00,$00,$00,$00,$00,$00,$00,$00   
0793+  27A8 00 00 00 00 
0794+  27AC 99 93 87 8F   .DB     $99,$93,$87,$8F,$87,$93,$99,$FF   
0794+  27B0 87 93 99 FF 
0795+  27B4 00 00 00 00   .DB     $00,$00,$00,$00,$00,$00,$00,$00   
0795+  27B8 00 00 00 00 
0796+  27BC 9F 9F 9F 9F   .DB     $9F,$9F,$9F,$9F,$9F,$9F,$81,$FF   
0796+  27C0 9F 9F 81 FF 
0797+  27C4 00 00 00 00   .DB     $00,$00,$00,$00,$00,$00,$00,$00   
0797+  27C8 00 00 00 00 
0798+  27CC 9C 88 80 94   .DB     $9C,$88,$80,$94,$9C,$9C,$9C,$FF   
0798+  27D0 9C 9C 9C FF 
0799+  27D4 00 00 00 00   .DB     $00,$00,$00,$00,$00,$00,$00,$00   
0799+  27D8 00 00 00 00 
0800+  27DC 99 89 81 81   .DB     $99,$89,$81,$81,$91,$99,$99,$FF   
0800+  27E0 91 99 99 FF 
0801+  27E4 00 00 00 00   .DB     $00,$00,$00,$00,$00,$00,$00,$00   
0801+  27E8 00 00 00 00 
0802+  27EC C3 99 99 99   .DB     $C3,$99,$99,$99,$99,$99,$C3,$FF   
0802+  27F0 99 99 C3 FF 
0803+  27F4 00 00 00 00   .DB     $00,$00,$00,$00,$00,$00,$00,$00   
0803+  27F8 00 00 00 00 
0804+  27FC 83 99 99 83   .DB     $83,$99,$99,$83,$9F,$9F,$9F,$FF   
0804+  2800 9F 9F 9F FF 
0805+  2804 00 00 00 00   .DB     $00,$00,$00,$00,$00,$00,$00,$00   
0805+  2808 00 00 00 00 
0806+  280C C3 99 99 99   .DB     $C3,$99,$99,$99,$99,$C3,$F1,$FF   
0806+  2810 99 C3 F1 FF 
0807+  2814 00 00 00 00   .DB     $00,$00,$00,$00,$00,$00,$00,$00   
0807+  2818 00 00 00 00 
0808+  281C 83 99 99 83   .DB     $83,$99,$99,$83,$87,$93,$99,$FF   
0808+  2820 87 93 99 FF 
0809+  2824 00 00 00 00   .DB     $00,$00,$00,$00,$00,$00,$00,$00   
0809+  2828 00 00 00 00 
0810+  282C C3 99 9F C3   .DB     $C3,$99,$9F,$C3,$F9,$99,$C3,$FF   
0810+  2830 F9 99 C3 FF 
0811+  2834 00 00 00 00   .DB     $00,$00,$00,$00,$00,$00,$00,$00   
0811+  2838 00 00 00 00 
0812+  283C 81 E7 E7 E7   .DB     $81,$E7,$E7,$E7,$E7,$E7,$E7,$FF   
0812+  2840 E7 E7 E7 FF 
0813+  2844 00 00 00 00   .DB     $00,$00,$00,$00,$00,$00,$00,$00   
0813+  2848 00 00 00 00 
0814+  284C 99 99 99 99   .DB     $99,$99,$99,$99,$99,$99,$C3,$FF   
0814+  2850 99 99 C3 FF 
0815+  2854 00 00 00 00   .DB     $00,$00,$00,$00,$00,$00,$00,$00   
0815+  2858 00 00 00 00 
0816+  285C 99 99 99 99   .DB     $99,$99,$99,$99,$99,$C3,$E7,$FF   
0816+  2860 99 C3 E7 FF 
0817+  2864 00 00 00 00   .DB     $00,$00,$00,$00,$00,$00,$00,$00   
0817+  2868 00 00 00 00 
0818+  286C 9C 9C 9C 94   .DB     $9C,$9C,$9C,$94,$80,$88,$9C,$FF   
0818+  2870 80 88 9C FF 
0819+  2874 00 00 00 00   .DB     $00,$00,$00,$00,$00,$00,$00,$00   
0819+  2878 00 00 00 00 
0820+  287C 99 99 C3 E7   .DB     $99,$99,$C3,$E7,$C3,$99,$99,$FF   
0820+  2880 C3 99 99 FF 
0821+  2884 00 00 00 00   .DB     $00,$00,$00,$00,$00,$00,$00,$00   
0821+  2888 00 00 00 00 
0822+  288C 99 99 99 C3   .DB     $99,$99,$99,$C3,$E7,$E7,$E7,$FF   
0822+  2890 E7 E7 E7 FF 
0823+  2894 00 00 00 00   .DB     $00,$00,$00,$00,$00,$00,$00,$00   
0823+  2898 00 00 00 00 
0824+  289C 81 F9 F3 E7   .DB     $81,$F9,$F3,$E7,$CF,$9F,$81,$FF   
0824+  28A0 CF 9F 81 FF 
0825+  28A4 00 00 00 00   .DB     $00,$00,$00,$00,$00,$00,$00,$00   
0825+  28A8 00 00 00 00 
0826+  28AC C3 CF CF CF   .DB     $C3,$CF,$CF,$CF,$CF,$CF,$C3,$FF   
0826+  28B0 CF CF C3 FF 
0827+  28B4 00 00 00 00   .DB     $00,$00,$00,$00,$00,$00,$00,$00   
0827+  28B8 00 00 00 00 
0828+  28BC F3 ED CF 83   .DB     $F3,$ED,$CF,$83,$CF,$9D,$03,$FF   
0828+  28C0 CF 9D 03 FF 
0829+  28C4 00 00 00 00   .DB     $00,$00,$00,$00,$00,$00,$00,$00   
0829+  28C8 00 00 00 00 
0830+  28CC C3 F3 F3 F3   .DB     $C3,$F3,$F3,$F3,$F3,$F3,$C3,$FF   
0830+  28D0 F3 F3 C3 FF 
0831+  28D4 00 00 00 00   .DB     $00,$00,$00,$00,$00,$00,$00,$00   
0831+  28D8 00 00 00 00 
0832+  28DC FF E7 C3 81   .DB     $FF,$E7,$C3,$81,$E7,$E7,$E7,$E7   
0832+  28E0 E7 E7 E7 E7 
0833+  28E4 00 00 00 00   .DB     $00,$00,$00,$00,$00,$00,$00,$00   
0833+  28E8 00 00 00 00 
0834+  28EC FF EF CF 80   .DB     $FF,$EF,$CF,$80,$80,$CF,$EF,$FF   
0834+  28F0 80 CF EF FF 
0835+  28F4 00 00 00 00   .DB     $00,$00,$00,$00,$00,$00,$00,$00   
0835+  28F8 00 00 00 00 
0836+  28FC FF FF FF FF   .DB     $FF,$FF,$FF,$FF,$FF,$FF,$FF,$FF   
0836+  2900 FF FF FF FF 
0837+  2904 00 00 00 00   .DB     $00,$00,$00,$00,$00,$00,$00,$00   
0837+  2908 00 00 00 00 
0838+  290C E7 E7 E7 E7   .DB     $E7,$E7,$E7,$E7,$FF,$FF,$E7,$FF   
0838+  2910 FF FF E7 FF 
0839+  2914 00 00 00 00   .DB     $00,$00,$00,$00,$00,$00,$00,$00   
0839+  2918 00 00 00 00 
0840+  291C 99 99 99 FF   .DB     $99,$99,$99,$FF,$FF,$FF,$FF,$FF   
0840+  2920 FF FF FF FF 
0841+  2924 00 00 00 00   .DB     $00,$00,$00,$00,$00,$00,$00,$00   
0841+  2928 00 00 00 00 
0842+  292C 99 99 00 99   .DB     $99,$99,$00,$99,$00,$99,$99,$FF   
0842+  2930 00 99 99 FF 
0843+  2934 00 00 00 00   .DB     $00,$00,$00,$00,$00,$00,$00,$00   
0843+  2938 00 00 00 00 
0844+  293C E7 C1 9F C3   .DB     $E7,$C1,$9F,$C3,$F9,$83,$E7,$FF   
0844+  2940 F9 83 E7 FF 
0845+  2944 00 00 00 00   .DB     $00,$00,$00,$00,$00,$00,$00,$00   
0845+  2948 00 00 00 00 
0846+  294C 9D 99 F3 E7   .DB     $9D,$99,$F3,$E7,$CF,$99,$B9,$FF   
0846+  2950 CF 99 B9 FF 
0847+  2954 00 00 00 00   .DB     $00,$00,$00,$00,$00,$00,$00,$00   
0847+  2958 00 00 00 00 
0848+  295C C3 99 C3 C7   .DB     $C3,$99,$C3,$C7,$98,$99,$C0,$FF   
0848+  2960 98 99 C0 FF 
0849+  2964 00 00 00 00   .DB     $00,$00,$00,$00,$00,$00,$00,$00   
0849+  2968 00 00 00 00 
0850+  296C F9 F3 E7 FF   .DB     $F9,$F3,$E7,$FF,$FF,$FF,$FF,$FF   
0850+  2970 FF FF FF FF 
0851+  2974 00 00 00 00   .DB     $00,$00,$00,$00,$00,$00,$00,$00   
0851+  2978 00 00 00 00 
0852+  297C F3 E7 CF CF   .DB     $F3,$E7,$CF,$CF,$CF,$E7,$F3,$FF   
0852+  2980 CF E7 F3 FF 
0853+  2984 00 00 00 00   .DB     $00,$00,$00,$00,$00,$00,$00,$00   
0853+  2988 00 00 00 00 
0854+  298C CF E7 F3 F3   .DB     $CF,$E7,$F3,$F3,$F3,$E7,$CF,$FF   
0854+  2990 F3 E7 CF FF 
0855+  2994 00 00 00 00   .DB     $00,$00,$00,$00,$00,$00,$00,$00   
0855+  2998 00 00 00 00 
0856+  299C FF 99 C3 00   .DB     $FF,$99,$C3,$00,$C3,$99,$FF,$FF   
0856+  29A0 C3 99 FF FF 
0857+  29A4 00 00 00 00   .DB     $00,$00,$00,$00,$00,$00,$00,$00   
0857+  29A8 00 00 00 00 
0858+  29AC FF E7 E7 81   .DB     $FF,$E7,$E7,$81,$E7,$E7,$FF,$FF   
0858+  29B0 E7 E7 FF FF 
0859+  29B4 00 00 00 00   .DB     $00,$00,$00,$00,$00,$00,$00,$00   
0859+  29B8 00 00 00 00 
0860+  29BC FF FF FF FF   .DB     $FF,$FF,$FF,$FF,$FF,$E7,$E7,$CF   
0860+  29C0 FF E7 E7 CF 
0861+  29C4 00 00 00 00   .DB     $00,$00,$00,$00,$00,$00,$00,$00   
0861+  29C8 00 00 00 00 
0862+  29CC FF FF FF 81   .DB     $FF,$FF,$FF,$81,$FF,$FF,$FF,$FF   
0862+  29D0 FF FF FF FF 
0863+  29D4 00 00 00 00   .DB     $00,$00,$00,$00,$00,$00,$00,$00   
0863+  29D8 00 00 00 00 
0864+  29DC FF FF FF FF   .DB     $FF,$FF,$FF,$FF,$FF,$E7,$E7,$FF   
0864+  29E0 FF E7 E7 FF 
0865+  29E4 00 00 00 00   .DB     $00,$00,$00,$00,$00,$00,$00,$00   
0865+  29E8 00 00 00 00 
0866+  29EC FF FC F9 F3   .DB     $FF,$FC,$F9,$F3,$E7,$CF,$9F,$FF   
0866+  29F0 E7 CF 9F FF 
0867+  29F4 00 00 00 00   .DB     $00,$00,$00,$00,$00,$00,$00,$00   
0867+  29F8 00 00 00 00 
0868+  29FC C3 99 91 89   .DB     $C3,$99,$91,$89,$99,$99,$C3,$FF   
0868+  2A00 99 99 C3 FF 
0869+  2A04 00 00 00 00   .DB     $00,$00,$00,$00,$00,$00,$00,$00   
0869+  2A08 00 00 00 00 
0870+  2A0C E7 E7 C7 E7   .DB     $E7,$E7,$C7,$E7,$E7,$E7,$81,$FF   
0870+  2A10 E7 E7 81 FF 
0871+  2A14 00 00 00 00   .DB     $00,$00,$00,$00,$00,$00,$00,$00   
0871+  2A18 00 00 00 00 
0872+  2A1C C3 99 F9 F3   .DB     $C3,$99,$F9,$F3,$CF,$9F,$81,$FF   
0872+  2A20 CF 9F 81 FF 
0873+  2A24 00 00 00 00   .DB     $00,$00,$00,$00,$00,$00,$00,$00   
0873+  2A28 00 00 00 00 
0874+  2A2C C3 99 F9 E3   .DB     $C3,$99,$F9,$E3,$F9,$99,$C3,$FF   
0874+  2A30 F9 99 C3 FF 
0875+  2A34 00 00 00 00   .DB     $00,$00,$00,$00,$00,$00,$00,$00   
0875+  2A38 00 00 00 00 
0876+  2A3C F9 F1 E1 99   .DB     $F9,$F1,$E1,$99,$80,$F9,$F9,$FF   
0876+  2A40 80 F9 F9 FF 
0877+  2A44 00 00 00 00   .DB     $00,$00,$00,$00,$00,$00,$00,$00   
0877+  2A48 00 00 00 00 
0878+  2A4C 81 9F 83 F9   .DB     $81,$9F,$83,$F9,$F9,$99,$C3,$FF   
0878+  2A50 F9 99 C3 FF 
0879+  2A54 00 00 00 00   .DB     $00,$00,$00,$00,$00,$00,$00,$00   
0879+  2A58 00 00 00 00 
0880+  2A5C C3 99 9F 83   .DB     $C3,$99,$9F,$83,$99,$99,$C3,$FF   
0880+  2A60 99 99 C3 FF 
0881+  2A64 00 00 00 00   .DB     $00,$00,$00,$00,$00,$00,$00,$00   
0881+  2A68 00 00 00 00 
0882+  2A6C 81 99 F3 E7   .DB     $81,$99,$F3,$E7,$E7,$E7,$E7,$FF   
0882+  2A70 E7 E7 E7 FF 
0883+  2A74 00 00 00 00   .DB     $00,$00,$00,$00,$00,$00,$00,$00   
0883+  2A78 00 00 00 00 
0884+  2A7C C3 99 99 C3   .DB     $C3,$99,$99,$C3,$99,$99,$C3,$FF   
0884+  2A80 99 99 C3 FF 
0885+  2A84 00 00 00 00   .DB     $00,$00,$00,$00,$00,$00,$00,$00   
0885+  2A88 00 00 00 00 
0886+  2A8C C3 99 99 C1   .DB     $C3,$99,$99,$C1,$F9,$99,$C3,$FF   
0886+  2A90 F9 99 C3 FF 
0887+  2A94 00 00 00 00   .DB     $00,$00,$00,$00,$00,$00,$00,$00   
0887+  2A98 00 00 00 00 
0888+  2A9C FF FF E7 FF   .DB     $FF,$FF,$E7,$FF,$FF,$E7,$FF,$FF   
0888+  2AA0 FF E7 FF FF 
0889+  2AA4 00 00 00 00   .DB     $00,$00,$00,$00,$00,$00,$00,$00   
0889+  2AA8 00 00 00 00 
0890+  2AAC FF FF E7 FF   .DB     $FF,$FF,$E7,$FF,$FF,$E7,$E7,$CF   
0890+  2AB0 FF E7 E7 CF 
0891+  2AB4 00 00 00 00   .DB     $00,$00,$00,$00,$00,$00,$00,$00   
0891+  2AB8 00 00 00 00 
0892+  2ABC F1 E7 CF 9F   .DB     $F1,$E7,$CF,$9F,$CF,$E7,$F1,$FF   
0892+  2AC0 CF E7 F1 FF 
0893+  2AC4 00 00 00 00   .DB     $00,$00,$00,$00,$00,$00,$00,$00   
0893+  2AC8 00 00 00 00 
0894+  2ACC FF FF 81 FF   .DB     $FF,$FF,$81,$FF,$81,$FF,$FF,$FF   
0894+  2AD0 81 FF FF FF 
0895+  2AD4 00 00 00 00   .DB     $00,$00,$00,$00,$00,$00,$00,$00   
0895+  2AD8 00 00 00 00 
0896+  2ADC 8F E7 F3 F9   .DB     $8F,$E7,$F3,$F9,$F3,$E7,$8F,$FF   
0896+  2AE0 F3 E7 8F FF 
0897+  2AE4 00 00 00 00   .DB     $00,$00,$00,$00,$00,$00,$00,$00   
0897+  2AE8 00 00 00 00 
0898+  2AEC C3 99 F9 F3   .DB     $C3,$99,$F9,$F3,$E7,$FF,$E7,$FF   
0898+  2AF0 E7 FF E7 FF 
0899+  2AF4 00 00 00 00   .DB     $00,$00,$00,$00,$00,$00,$00,$00   
0899+  2AF8 00 00 00 00 
0900+  2AFC FF FF FF 00   .DB     $FF,$FF,$FF,$00,$00,$FF,$FF,$FF   
0900+  2B00 00 FF FF FF 
0901+  2B04 00 00 00 00   .DB     $00,$00,$00,$00,$00,$00,$00,$00   
0901+  2B08 00 00 00 00 
0902+  2B0C F7 E3 C1 80   .DB     $F7,$E3,$C1,$80,$80,$E3,$C1,$FF   
0902+  2B10 80 E3 C1 FF 
0903+  2B14 00 00 00 00   .DB     $00,$00,$00,$00,$00,$00,$00,$00   
0903+  2B18 00 00 00 00 
0904+  2B1C E7 E7 E7 E7   .DB     $E7,$E7,$E7,$E7,$E7,$E7,$E7,$E7   
0904+  2B20 E7 E7 E7 E7 
0905+  2B24 00 00 00 00   .DB     $00,$00,$00,$00,$00,$00,$00,$00   
0905+  2B28 00 00 00 00 
0906+  2B2C FF FF FF 00   .DB     $FF,$FF,$FF,$00,$00,$FF,$FF,$FF   
0906+  2B30 00 FF FF FF 
0907+  2B34 00 00 00 00   .DB     $00,$00,$00,$00,$00,$00,$00,$00   
0907+  2B38 00 00 00 00 
0908+  2B3C FF FF 00 00   .DB     $FF,$FF,$00,$00,$FF,$FF,$FF,$FF   
0908+  2B40 FF FF FF FF 
0909+  2B44 00 00 00 00   .DB     $00,$00,$00,$00,$00,$00,$00,$00   
0909+  2B48 00 00 00 00 
0910+  2B4C FF 00 00 FF   .DB     $FF,$00,$00,$FF,$FF,$FF,$FF,$FF   
0910+  2B50 FF FF FF FF 
0911+  2B54 00 00 00 00   .DB     $00,$00,$00,$00,$00,$00,$00,$00   
0911+  2B58 00 00 00 00 
0912+  2B5C FF FF FF FF   .DB     $FF,$FF,$FF,$FF,$00,$00,$FF,$FF   
0912+  2B60 00 00 FF FF 
0913+  2B64 00 00 00 00   .DB     $00,$00,$00,$00,$00,$00,$00,$00   
0913+  2B68 00 00 00 00 
0914+  2B6C CF CF CF CF   .DB     $CF,$CF,$CF,$CF,$CF,$CF,$CF,$CF   
0914+  2B70 CF CF CF CF 
0915+  2B74 00 00 00 00   .DB     $00,$00,$00,$00,$00,$00,$00,$00   
0915+  2B78 00 00 00 00 
0916+  2B7C F3 F3 F3 F3   .DB     $F3,$F3,$F3,$F3,$F3,$F3,$F3,$F3   
0916+  2B80 F3 F3 F3 F3 
0917+  2B84 00 00 00 00   .DB     $00,$00,$00,$00,$00,$00,$00,$00   
0917+  2B88 00 00 00 00 
0918+  2B8C FF FF FF 1F   .DB     $FF,$FF,$FF,$1F,$0F,$C7,$E7,$E7   
0918+  2B90 0F C7 E7 E7 
0919+  2B94 00 00 00 00   .DB     $00,$00,$00,$00,$00,$00,$00,$00   
0919+  2B98 00 00 00 00 
0920+  2B9C E7 E7 E3 F0   .DB     $E7,$E7,$E3,$F0,$F8,$FF,$FF,$FF   
0920+  2BA0 F8 FF FF FF 
0921+  2BA4 00 00 00 00   .DB     $00,$00,$00,$00,$00,$00,$00,$00   
0921+  2BA8 00 00 00 00 
0922+  2BAC E7 E7 C7 0F   .DB     $E7,$E7,$C7,$0F,$1F,$FF,$FF,$FF   
0922+  2BB0 1F FF FF FF 
0923+  2BB4 00 00 00 00   .DB     $00,$00,$00,$00,$00,$00,$00,$00   
0923+  2BB8 00 00 00 00 
0924+  2BBC 3F 3F 3F 3F   .DB     $3F,$3F,$3F,$3F,$3F,$3F,$00,$00   
0924+  2BC0 3F 3F 00 00 
0925+  2BC4 00 00 00 00   .DB     $00,$00,$00,$00,$00,$00,$00,$00   
0925+  2BC8 00 00 00 00 
0926+  2BCC 3F 1F 8F C7   .DB     $3F,$1F,$8F,$C7,$E3,$F1,$F8,$FC   
0926+  2BD0 E3 F1 F8 FC 
0927+  2BD4 00 00 00 00   .DB     $00,$00,$00,$00,$00,$00,$00,$00   
0927+  2BD8 00 00 00 00 
0928+  2BDC FC F8 F1 E3   .DB     $FC,$F8,$F1,$E3,$C7,$8F,$1F,$3F   
0928+  2BE0 C7 8F 1F 3F 
0929+  2BE4 00 00 00 00   .DB     $00,$00,$00,$00,$00,$00,$00,$00   
0929+  2BE8 00 00 00 00 
0930+  2BEC 00 00 3F 3F   .DB     $00,$00,$3F,$3F,$3F,$3F,$3F,$3F   
0930+  2BF0 3F 3F 3F 3F 
0931+  2BF4 00 00 00 00   .DB     $00,$00,$00,$00,$00,$00,$00,$00   
0931+  2BF8 00 00 00 00 
0932+  2BFC 00 00 FC FC   .DB     $00,$00,$FC,$FC,$FC,$FC,$FC,$FC   
0932+  2C00 FC FC FC FC 
0933+  2C04 00 00 00 00   .DB     $00,$00,$00,$00,$00,$00,$00,$00   
0933+  2C08 00 00 00 00 
0934+  2C0C FF C3 81 81   .DB     $FF,$C3,$81,$81,$81,$81,$C3,$FF   
0934+  2C10 81 81 C3 FF 
0935+  2C14 00 00 00 00   .DB     $00,$00,$00,$00,$00,$00,$00,$00   
0935+  2C18 00 00 00 00 
0936+  2C1C FF FF FF FF   .DB     $FF,$FF,$FF,$FF,$FF,$00,$00,$FF   
0936+  2C20 FF 00 00 FF 
0937+  2C24 00 00 00 00   .DB     $00,$00,$00,$00,$00,$00,$00,$00   
0937+  2C28 00 00 00 00 
0938+  2C2C C9 80 80 80   .DB     $C9,$80,$80,$80,$C1,$E3,$F7,$FF   
0938+  2C30 C1 E3 F7 FF 
0939+  2C34 00 00 00 00   .DB     $00,$00,$00,$00,$00,$00,$00,$00   
0939+  2C38 00 00 00 00 
0940+  2C3C 9F 9F 9F 9F   .DB     $9F,$9F,$9F,$9F,$9F,$9F,$9F,$9F   
0940+  2C40 9F 9F 9F 9F 
0941+  2C44 00 00 00 00   .DB     $00,$00,$00,$00,$00,$00,$00,$00   
0941+  2C48 00 00 00 00 
0942+  2C4C FF FF FF F8   .DB     $FF,$FF,$FF,$F8,$F0,$E3,$E7,$E7   
0942+  2C50 F0 E3 E7 E7 
0943+  2C54 00 00 00 00   .DB     $00,$00,$00,$00,$00,$00,$00,$00   
0943+  2C58 00 00 00 00 
0944+  2C5C 3C 18 81 C3   .DB     $3C,$18,$81,$C3,$C3,$81,$18,$3C   
0944+  2C60 C3 81 18 3C 
0945+  2C64 00 00 00 00   .DB     $00,$00,$00,$00,$00,$00,$00,$00   
0945+  2C68 00 00 00 00 
0946+  2C6C FF C3 81 99   .DB     $FF,$C3,$81,$99,$99,$81,$C3,$FF   
0946+  2C70 99 81 C3 FF 
0947+  2C74 00 00 00 00   .DB     $00,$00,$00,$00,$00,$00,$00,$00   
0947+  2C78 00 00 00 00 
0948+  2C7C E7 E7 99 99   .DB     $E7,$E7,$99,$99,$E7,$E7,$C3,$FF   
0948+  2C80 E7 E7 C3 FF 
0949+  2C84 00 00 00 00   .DB     $00,$00,$00,$00,$00,$00,$00,$00   
0949+  2C88 00 00 00 00 
0950+  2C8C F9 F9 F9 F9   .DB     $F9,$F9,$F9,$F9,$F9,$F9,$F9,$F9   
0950+  2C90 F9 F9 F9 F9 
0951+  2C94 00 00 00 00   .DB     $00,$00,$00,$00,$00,$00,$00,$00   
0951+  2C98 00 00 00 00 
0952+  2C9C F7 E3 C1 80   .DB     $F7,$E3,$C1,$80,$C1,$E3,$F7,$FF   
0952+  2CA0 C1 E3 F7 FF 
0953+  2CA4 00 00 00 00   .DB     $00,$00,$00,$00,$00,$00,$00,$00   
0953+  2CA8 00 00 00 00 
0954+  2CAC E7 E7 E7 00   .DB     $E7,$E7,$E7,$00,$00,$E7,$E7,$E7   
0954+  2CB0 00 E7 E7 E7 
0955+  2CB4 00 00 00 00   .DB     $00,$00,$00,$00,$00,$00,$00,$00   
0955+  2CB8 00 00 00 00 
0956+  2CBC 3F 3F CF CF   .DB     $3F,$3F,$CF,$CF,$3F,$3F,$CF,$CF   
0956+  2CC0 3F 3F CF CF 
0957+  2CC4 00 00 00 00   .DB     $00,$00,$00,$00,$00,$00,$00,$00   
0957+  2CC8 00 00 00 00 
0958+  2CCC E7 E7 E7 E7   .DB     $E7,$E7,$E7,$E7,$E7,$E7,$E7,$E7   
0958+  2CD0 E7 E7 E7 E7 
0959+  2CD4 00 00 00 00   .DB     $00,$00,$00,$00,$00,$00,$00,$00   
0959+  2CD8 00 00 00 00 
0960+  2CDC FF FF FC C1   .DB     $FF,$FF,$FC,$C1,$89,$C9,$C9,$FF   
0960+  2CE0 89 C9 C9 FF 
0961+  2CE4 00 00 00 00   .DB     $00,$00,$00,$00,$00,$00,$00,$00   
0961+  2CE8 00 00 00 00 
0962+  2CEC 00 80 C0 E0   .DB     $00,$80,$C0,$E0,$F0,$F8,$FC,$FE   
0962+  2CF0 F0 F8 FC FE 
0963+  2CF4 00 00 00 00   .DB     $00,$00,$00,$00,$00,$00,$00,$00   
0963+  2CF8 00 00 00 00 
0964+  2CFC FF FF FF FF   .DB     $FF,$FF,$FF,$FF,$FF,$FF,$FF,$FF   
0964+  2D00 FF FF FF FF 
0965+  2D04 00 00 00 00   .DB     $00,$00,$00,$00,$00,$00,$00,$00   
0965+  2D08 00 00 00 00 
0966+  2D0C 0F 0F 0F 0F   .DB     $0F,$0F,$0F,$0F,$0F,$0F,$0F,$0F   
0966+  2D10 0F 0F 0F 0F 
0967+  2D14 00 00 00 00   .DB     $00,$00,$00,$00,$00,$00,$00,$00   
0967+  2D18 00 00 00 00 
0968+  2D1C FF FF FF FF   .DB     $FF,$FF,$FF,$FF,$00,$00,$00,$00   
0968+  2D20 00 00 00 00 
0969+  2D24 00 00 00 00   .DB     $00,$00,$00,$00,$00,$00,$00,$00   
0969+  2D28 00 00 00 00 
0970+  2D2C 00 FF FF FF   .DB     $00,$FF,$FF,$FF,$FF,$FF,$FF,$FF   
0970+  2D30 FF FF FF FF 
0971+  2D34 00 00 00 00   .DB     $00,$00,$00,$00,$00,$00,$00,$00   
0971+  2D38 00 00 00 00 
0972+  2D3C FF FF FF FF   .DB     $FF,$FF,$FF,$FF,$FF,$FF,$FF,$00   
0972+  2D40 FF FF FF 00 
0973+  2D44 00 00 00 00   .DB     $00,$00,$00,$00,$00,$00,$00,$00   
0973+  2D48 00 00 00 00 
0974+  2D4C 3F 3F 3F 3F   .DB     $3F,$3F,$3F,$3F,$3F,$3F,$3F,$3F   
0974+  2D50 3F 3F 3F 3F 
0975+  2D54 00 00 00 00   .DB     $00,$00,$00,$00,$00,$00,$00,$00   
0975+  2D58 00 00 00 00 
0976+  2D5C 33 33 CC CC   .DB     $33,$33,$CC,$CC,$33,$33,$CC,$CC   
0976+  2D60 33 33 CC CC 
0977+  2D64 00 00 00 00   .DB     $00,$00,$00,$00,$00,$00,$00,$00   
0977+  2D68 00 00 00 00 
0978+  2D6C FC FC FC FC   .DB     $FC,$FC,$FC,$FC,$FC,$FC,$FC,$FC   
0978+  2D70 FC FC FC FC 
0979+  2D74 00 00 00 00   .DB     $00,$00,$00,$00,$00,$00,$00,$00   
0979+  2D78 00 00 00 00 
0980+  2D7C FF FF FF FF   .DB     $FF,$FF,$FF,$FF,$33,$33,$CC,$CC   
0980+  2D80 33 33 CC CC 
0981+  2D84 00 00 00 00   .DB     $00,$00,$00,$00,$00,$00,$00,$00   
0981+  2D88 00 00 00 00 
0982+  2D8C 00 01 03 07   .DB     $00,$01,$03,$07,$0F,$1F,$3F,$7F   
0982+  2D90 0F 1F 3F 7F 
0983+  2D94 00 00 00 00   .DB     $00,$00,$00,$00,$00,$00,$00,$00   
0983+  2D98 00 00 00 00 
0984+  2D9C FC FC FC FC   .DB     $FC,$FC,$FC,$FC,$FC,$FC,$FC,$FC   
0984+  2DA0 FC FC FC FC 
0985+  2DA4 00 00 00 00   .DB     $00,$00,$00,$00,$00,$00,$00,$00   
0985+  2DA8 00 00 00 00 
0986+  2DAC E7 E7 E7 E0   .DB     $E7,$E7,$E7,$E0,$E0,$E7,$E7,$E7   
0986+  2DB0 E0 E7 E7 E7 
0987+  2DB4 00 00 00 00   .DB     $00,$00,$00,$00,$00,$00,$00,$00   
0987+  2DB8 00 00 00 00 
0988+  2DBC FF FF FF FF   .DB     $FF,$FF,$FF,$FF,$F0,$F0,$F0,$F0   
0988+  2DC0 F0 F0 F0 F0 
0989+  2DC4 00 00 00 00   .DB     $00,$00,$00,$00,$00,$00,$00,$00   
0989+  2DC8 00 00 00 00 
0990+  2DCC E7 E7 E7 E0   .DB     $E7,$E7,$E7,$E0,$E0,$FF,$FF,$FF   
0990+  2DD0 E0 FF FF FF 
0991+  2DD4 00 00 00 00   .DB     $00,$00,$00,$00,$00,$00,$00,$00   
0991+  2DD8 00 00 00 00 
0992+  2DDC FF FF FF 07   .DB     $FF,$FF,$FF,$07,$07,$E7,$E7,$E7   
0992+  2DE0 07 E7 E7 E7 
0993+  2DE4 00 00 00 00   .DB     $00,$00,$00,$00,$00,$00,$00,$00   
0993+  2DE8 00 00 00 00 
0994+  2DEC FF FF FF FF   .DB     $FF,$FF,$FF,$FF,$FF,$FF,$00,$00   
0994+  2DF0 FF FF 00 00 
0995+  2DF4 00 00 00 00   .DB     $00,$00,$00,$00,$00,$00,$00,$00   
0995+  2DF8 00 00 00 00 
0996+  2DFC FF FF FF E0   .DB     $FF,$FF,$FF,$E0,$E0,$E7,$E7,$E7   
0996+  2E00 E0 E7 E7 E7 
0997+  2E04 00 00 00 00   .DB     $00,$00,$00,$00,$00,$00,$00,$00   
0997+  2E08 00 00 00 00 
0998+  2E0C E7 E7 E7 00   .DB     $E7,$E7,$E7,$00,$00,$FF,$FF,$FF   
0998+  2E10 00 FF FF FF 
0999+  2E14 00 00 00 00   .DB     $00,$00,$00,$00,$00,$00,$00,$00   
0999+  2E18 00 00 00 00 
1000+  2E1C FF FF FF 00   .DB     $FF,$FF,$FF,$00,$00,$E7,$E7,$E7   
1000+  2E20 00 E7 E7 E7 
1001+  2E24 00 00 00 00   .DB     $00,$00,$00,$00,$00,$00,$00,$00   
1001+  2E28 00 00 00 00 
1002+  2E2C E7 E7 E7 07   .DB     $E7,$E7,$E7,$07,$07,$E7,$E7,$E7   
1002+  2E30 07 E7 E7 E7 
1003+  2E34 00 00 00 00   .DB     $00,$00,$00,$00,$00,$00,$00,$00   
1003+  2E38 00 00 00 00 
1004+  2E3C 3F 3F 3F 3F   .DB     $3F,$3F,$3F,$3F,$3F,$3F,$3F,$3F   
1004+  2E40 3F 3F 3F 3F 
1005+  2E44 00 00 00 00   .DB     $00,$00,$00,$00,$00,$00,$00,$00   
1005+  2E48 00 00 00 00 
1006+  2E4C 1F 1F 1F 1F   .DB     $1F,$1F,$1F,$1F,$1F,$1F,$1F,$1F   
1006+  2E50 1F 1F 1F 1F 
1007+  2E54 00 00 00 00   .DB     $00,$00,$00,$00,$00,$00,$00,$00   
1007+  2E58 00 00 00 00 
1008+  2E5C F8 F8 F8 F8   .DB     $F8,$F8,$F8,$F8,$F8,$F8,$F8,$F8   
1008+  2E60 F8 F8 F8 F8 
1009+  2E64 00 00 00 00   .DB     $00,$00,$00,$00,$00,$00,$00,$00   
1009+  2E68 00 00 00 00 
1010+  2E6C 00 00 FF FF   .DB     $00,$00,$FF,$FF,$FF,$FF,$FF,$FF   
1010+  2E70 FF FF FF FF 
1011+  2E74 00 00 00 00   .DB     $00,$00,$00,$00,$00,$00,$00,$00   
1011+  2E78 00 00 00 00 
1012+  2E7C 00 00 00 FF   .DB     $00,$00,$00,$FF,$FF,$FF,$FF,$FF   
1012+  2E80 FF FF FF FF 
1013+  2E84 00 00 00 00   .DB     $00,$00,$00,$00,$00,$00,$00,$00   
1013+  2E88 00 00 00 00 
1014+  2E8C FF FF FF FF   .DB     $FF,$FF,$FF,$FF,$FF,$00,$00,$00   
1014+  2E90 FF 00 00 00 
1015+  2E94 00 00 00 00   .DB     $00,$00,$00,$00,$00,$00,$00,$00   
1015+  2E98 00 00 00 00 
1016+  2E9C FC FC FC FC   .DB     $FC,$FC,$FC,$FC,$FC,$FC,$00,$00   
1016+  2EA0 FC FC 00 00 
1017+  2EA4 00 00 00 00   .DB     $00,$00,$00,$00,$00,$00,$00,$00   
1017+  2EA8 00 00 00 00 
1018+  2EAC FF FF FF FF   .DB     $FF,$FF,$FF,$FF,$0F,$0F,$0F,$0F   
1018+  2EB0 0F 0F 0F 0F 
1019+  2EB4 00 00 00 00   .DB     $00,$00,$00,$00,$00,$00,$00,$00   
1019+  2EB8 00 00 00 00 
1020+  2EBC F0 F0 F0 F0   .DB     $F0,$F0,$F0,$F0,$FF,$FF,$FF,$FF   
1020+  2EC0 FF FF FF FF 
1021+  2EC4 00 00 00 00   .DB     $00,$00,$00,$00,$00,$00,$00,$00   
1021+  2EC8 00 00 00 00 
1022+  2ECC E7 E7 E7 07   .DB     $E7,$E7,$E7,$07,$07,$FF,$FF,$FF   
1022+  2ED0 07 FF FF FF 
1023+  2ED4 00 00 00 00   .DB     $00,$00,$00,$00,$00,$00,$00,$00   
1023+  2ED8 00 00 00 00 
1024+  2EDC 0F 0F 0F 0F   .DB     $0F,$0F,$0F,$0F,$FF,$FF,$FF,$FF   
1024+  2EE0 FF FF FF FF 
1025+  2EE4 00 00 00 00   .DB     $00,$00,$00,$00,$00,$00,$00,$00   
1025+  2EE8 00 00 00 00 
1018   2EEC             
1019   2EEC             ;__________________________________________________________________________________________________
1020   2EEC             ;
1021   2EEC             ; 	RAM STORAGE AREAS
1022   2EEC             ;__________________________________________________________________________________________________			
1023   2EEC             
1024   2EEC 00          ALT_KEYPAD	.DB	0		; ALT KEYPAD ENABLED?	
1025   2EED 00          GR_MODE		.DB	0		; GRAPHICS MODE ENABLED?
1026   2EEE 00          TERM_X:		.DB	0		; CURSOR X
1027   2EEF 00          TERM_Y:		.DB	0		; CURSOR Y
1028   2EF0 00          TERMSTATE:	.DB	0		; TERMINAL STATE
1029   2EF1             					; 0 = NORMAL
1030   2EF1             					; 1 = ESC RCVD
1031   2EF1 00 00       VDU_DisplayPos:	.DW  	0		; CURRENT DISPLAY POSITION
1032   2EF3             VDU_DISPLAY_START:
1033   2EF3 00 00       		.DW  	0		; CURRENT DISPLAY POSITION
1034   2EF5 00          capslock	.DB  	0		; location for caps lock, either 00000000 or 11111111
1035   2EF6 00          ctrl		.DB  	0		; location for ctrl on or off 00000000 or 11111111
1036   2EF7 00          numlock		.DB  	0		; location for num lock
1037   2EF8 00          skipcount	.DB	0		; only check some calls, speeds up a lot of cp/m
1038   2EF9             
1039   2EF9 00 00 00 00 KB_QUEUE	.DB	0,0,0,0,0,0,0,0 ; 16 BYTE KB QUEUE
1039   2EFD 00 00 00 00 
1040   2F01 00 00 00 00 		.DB	0,0,0,0,0,0,0,0
1040   2F05 00 00 00 00 
1041   2F09 00          KB_QUEUE_PTR	.DB	0		; POINTER TO QUEUE			
1042   2F0A 00 00       PARKSTACK	.DW	0000		; SAVE STACK POINTER 
1043   2F0C             
1044   2F0C 00 00 00 00 		.DB	0,0,0,0,0,0,0,0 ;
1044   2F10 00 00 00 00 
1045   2F14 00 00 00 00 		.DB	0,0,0,0,0,0,0,0	;
1045   2F18 00 00 00 00 
1046   2F1C 00 00 00 00 		.DB	0,0,0,0,0,0,0,0 ;
1046   2F20 00 00 00 00 
1047   2F24 00 00 00 00 		.DB	0,0,0,0,0,0,0,0	;
1047   2F28 00 00 00 00 
1048   2F2C 00 00 00 00 		.DB	0,0,0,0,0,0,0,0 ;
1048   2F30 00 00 00 00 
1049   2F34 00 00 00 00 		.DB	0,0,0,0,0,0,0,0	;
1049   2F38 00 00 00 00 
1050   2F3C 00 00 00 00 		.DB	0,0,0,0,0,0,0,0 ;
1050   2F40 00 00 00 00 
1051   2F44 00 00 00 00 		.DB	0,0,0,0,0,0,0,0	;
1051   2F48 00 00 00 00 
1052   2F4C 00 00 00 00 		.DB	0,0,0,0,0,0,0,0 ;
1052   2F50 00 00 00 00 
1053   2F54 00 00 00 00 		.DB	0,0,0,0,0,0,0,0	;
1053   2F58 00 00 00 00 
1054   2F5C 00 00 00 00 		.DB	0,0,0,0,0,0,0,0 ;
1054   2F60 00 00 00 00 
1055   2F64 00 00 00 00 		.DB	0,0,0,0,0,0,0,0	;
1055   2F68 00 00 00 00 
1056   2F6C 00          TERMSTACK:	.DB	0		;
1057   2F6D             
1058   2F6D             
1059   2F6D             	.end
