Modules list:
-------------
assign.o:
    CODE              Offs=000000  Size=0000F3  Align=00001  Fill=0000
    RODATA            Offs=000000  Size=000044  Align=00001  Fill=0000
./nhyodyne/nhyodyne.lib(_hextab.o):
    RODATA            Offs=000044  Size=000010  Align=00001  Fill=0000
./nhyodyne/nhyodyne.lib(_longminstr.o):
    RODATA            Offs=000054  Size=00000C  Align=00001  Fill=0000
./nhyodyne/nhyodyne.lib(_printf.o):
    CODE              Offs=0000F3  Size=0003A5  Align=00001  Fill=0000
    BSS               Offs=000000  Size=00002B  Align=00001  Fill=0000
    DATA              Offs=000000  Size=000003  Align=00001  Fill=0000
./nhyodyne/nhyodyne.lib(add.o):
    CODE              Offs=000498  Size=000018  Align=00001  Fill=0000
./nhyodyne/nhyodyne.lib(addysp.o):
    CODE              Offs=0004B0  Size=00000E  Align=00001  Fill=0000
./nhyodyne/nhyodyne.lib(axlong.o):
    CODE              Offs=0004BE  Size=00000D  Align=00001  Fill=0000
./nhyodyne/nhyodyne.lib(condes.o):
    CODE              Offs=0004CB  Size=00000C  Align=00001  Fill=0000
    DATA              Offs=000003  Size=000025  Align=00001  Fill=0000
    ONCE              Offs=000000  Size=00000C  Align=00001  Fill=0000
./nhyodyne/nhyodyne.lib(copydata.o):
    CODE              Offs=0004D7  Size=00002D  Align=00001  Fill=0000
./nhyodyne/nhyodyne.lib(cprintf.o):
    CODE              Offs=000504  Size=00002A  Align=00001  Fill=0000
    BSS               Offs=00002B  Size=000001  Align=00001  Fill=0000
./nhyodyne/nhyodyne.lib(cputs.o):
    CODE              Offs=00052E  Size=000023  Align=00001  Fill=0000
./nhyodyne/nhyodyne.lib(crt0.o):
    STARTUP           Offs=000000  Size=00001E  Align=00001  Fill=0000
./nhyodyne/nhyodyne.lib(ctype.o):
    RODATA            Offs=000060  Size=00008B  Align=00001  Fill=0000
./nhyodyne/nhyodyne.lib(ctypemask.o):
    CODE              Offs=000551  Size=00001E  Align=00001  Fill=0000
./nhyodyne/nhyodyne.lib(decsp2.o):
    CODE              Offs=00056F  Size=00000D  Align=00001  Fill=0000
./nhyodyne/nhyodyne.lib(decsp4.o):
    CODE              Offs=00057C  Size=00000D  Align=00001  Fill=0000
./nhyodyne/nhyodyne.lib(decsp6.o):
    CODE              Offs=000589  Size=00000D  Align=00001  Fill=0000
./nhyodyne/nhyodyne.lib(incaxy.o):
    CODE              Offs=000596  Size=00000B  Align=00001  Fill=0000
./nhyodyne/nhyodyne.lib(incsp1.o):
    CODE              Offs=0005A1  Size=000007  Align=00001  Fill=0000
./nhyodyne/nhyodyne.lib(incsp2.o):
    CODE              Offs=0005A8  Size=000015  Align=00001  Fill=0000
./nhyodyne/nhyodyne.lib(incsp4.o):
    CODE              Offs=0005BD  Size=000005  Align=00001  Fill=0000
./nhyodyne/nhyodyne.lib(ldaxsp.o):
    CODE              Offs=0005C2  Size=000009  Align=00001  Fill=0000
./nhyodyne/nhyodyne.lib(lneg.o):
    CODE              Offs=0005CB  Size=00001E  Align=00001  Fill=0000
./nhyodyne/nhyodyne.lib(lpush.o):
    CODE              Offs=0005E9  Size=00001E  Align=00001  Fill=0000
./nhyodyne/nhyodyne.lib(ltoa.o):
    CODE              Offs=000607  Size=000093  Align=00001  Fill=0000
./nhyodyne/nhyodyne.lib(mod.o):
    CODE              Offs=00069A  Size=000011  Align=00001  Fill=0000
./nhyodyne/nhyodyne.lib(negabs.o):
    CODE              Offs=0006AB  Size=000012  Align=00001  Fill=0000
./nhyodyne/nhyodyne.lib(popptr1.o):
    CODE              Offs=0006BD  Size=00000E  Align=00001  Fill=0000
./nhyodyne/nhyodyne.lib(push1.o):
    CODE              Offs=0006CB  Size=000005  Align=00001  Fill=0000
./nhyodyne/nhyodyne.lib(pusha.o):
    CODE              Offs=0006D0  Size=000016  Align=00001  Fill=0000
./nhyodyne/nhyodyne.lib(pushax.o):
    CODE              Offs=0006E6  Size=00001A  Align=00001  Fill=0000
./nhyodyne/nhyodyne.lib(pushwsp.o):
    CODE              Offs=000700  Size=00001C  Align=00001  Fill=0000
./nhyodyne/nhyodyne.lib(shelp.o):
    CODE              Offs=00071C  Size=000020  Align=00001  Fill=0000
./nhyodyne/nhyodyne.lib(staxsp.o):
    CODE              Offs=00073C  Size=00000B  Align=00001  Fill=0000
./nhyodyne/nhyodyne.lib(strlen.o):
    CODE              Offs=000747  Size=000016  Align=00001  Fill=0000
./nhyodyne/nhyodyne.lib(strlower.o):
    CODE              Offs=00075D  Size=000027  Align=00001  Fill=0000
./nhyodyne/nhyodyne.lib(udiv.o):
    CODE              Offs=000784  Size=00004F  Align=00001  Fill=0000
./nhyodyne/nhyodyne.lib(vcprintf.o):
    CODE              Offs=0007D3  Size=000078  Align=00001  Fill=0000
    DATA              Offs=000028  Size=000008  Align=00001  Fill=0000
./nhyodyne/nhyodyne.lib(zerobss.o):
    CODE              Offs=00084B  Size=000023  Align=00001  Fill=0000
./nhyodyne/nhyodyne.lib(zeropage.o):
    ZEROPAGE          Offs=000000  Size=00001A  Align=00001  Fill=0000
./nhyodyne/nhyodyne.lib(nhyodyne.o):
    CODE              Offs=00086E  Size=000007  Align=00001  Fill=0000


Segment list:
-------------
Name                   Start     End    Size  Align
----------------------------------------------------
ZEROPAGE              000000  000019  00001A  00001
STARTUP               000800  00081D  00001E  00001
ONCE                  00081E  000829  00000C  00001
CODE                  00082A  00109E  000875  00001
DATA                  00109F  0010CE  000030  00001
RODATA                0010CF  0011B9  0000EB  00001
BSS                   0011BA  0011E5  00002C  00001


Exports list by name:
---------------------
__BSS_RUN__               0011BA RLA    __BSS_SIZE__              00002C REA    
__CONSTRUCTOR_COUNT__     000000 REA    __CONSTRUCTOR_TABLE__     00081E RLA    
__DATA_LOAD__             00109F RLA    __DATA_RUN__              00109F RLA    
__DATA_SIZE__             000030 REA    __DESTRUCTOR_COUNT__      000000 REA    
__DESTRUCTOR_TABLE__      00081E RLA    __RAM_SIZE__              00C800 REA    
__RAM_START__             000800 RLA    __STARTUP__               000001 REA    
__ctype                   00112F RLA    __ctypeidx                00113A RLA    
__hextab                  001113 RLA    __longminstr              001123 RLA    
__printf                  000A10 RLA    _cprintf                  000D2E RLA    
_cputc                    001098 RLA    _cputs                    000D62 RLA    
_ltoa                     000E49 RLA    _main                     00090A RLA    
_strlen                   000F71 RLA    _strlower                 000F87 RLA    
_ultoa                    000E88 RLA    _vcprintf                 001045 RLA    
addysp                    000CDB RLA    axlong                    000CE8 RLA    
axulong                   000CEE RLA    copydata                  000D01 RLA    
ctypemaskdirect           000D7F RLA    decsp2                    000D99 RLA    
decsp4                    000DA6 RLA    decsp6                    000DB3 RLA    
donelib                   000CF5 RLA    gotoxy                    00109E RLA    
incaxy                    000DC2 RLA    incsp1                    000DCB RLA    
incsp2                    000DD9 RLA    incsp4                    000DE7 RLA    
initlib                   00081E RLA    ldax0sp                   000DEC RLA    
ldaxysp                   000DEE RLA    negax                     000ED9 RLA    
negeax                    000DF5 RLA    popax                     000DD2 RLA    
popptr1                   000EE7 RLA    popsargsudiv16            000F46 RLA    
ptr1                      000008 RLZ    ptr2                      00000A RLZ    
ptr3                      00000C RLZ    ptr4                      00000E RLZ    
push1                     000EF5 RLA    pusha                     000EFE RLA    
pusha0                    000F12 RLA    pushax                    000F14 RLA    
pusheax                   000E1A RLA    pushwysp                  000F2C RLA    
regbank                   000014 RLZ    regsave                   000004 RLZ    
sp                        000000 RLZ    sreg                      000002 RLZ    
stax0sp                   000F66 RLA    staxysp                   000F68 RLA    
tmp1                      000010 RLZ    tmp2                      000011 RLZ    
tosaddax                  000CC4 RLA    tosmoda0                  000EC4 RLA    
udiv16                    000FBF RLA    zerobss                   001075 RLA    



Exports list by value:
----------------------
__CONSTRUCTOR_COUNT__     000000 REA    __DESTRUCTOR_COUNT__      000000 REA    
sp                        000000 RLZ    __STARTUP__               000001 REA    
sreg                      000002 RLZ    regsave                   000004 RLZ    
ptr1                      000008 RLZ    ptr2                      00000A RLZ    
ptr3                      00000C RLZ    ptr4                      00000E RLZ    
tmp1                      000010 RLZ    tmp2                      000011 RLZ    
regbank                   000014 RLZ    __BSS_SIZE__              00002C REA    
__DATA_SIZE__             000030 REA    __RAM_START__             000800 RLA    
__CONSTRUCTOR_TABLE__     00081E RLA    __DESTRUCTOR_TABLE__      00081E RLA    
initlib                   00081E RLA    _main                     00090A RLA    
__printf                  000A10 RLA    tosaddax                  000CC4 RLA    
addysp                    000CDB RLA    axlong                    000CE8 RLA    
axulong                   000CEE RLA    donelib                   000CF5 RLA    
copydata                  000D01 RLA    _cprintf                  000D2E RLA    
_cputs                    000D62 RLA    ctypemaskdirect           000D7F RLA    
decsp2                    000D99 RLA    decsp4                    000DA6 RLA    
decsp6                    000DB3 RLA    incaxy                    000DC2 RLA    
incsp1                    000DCB RLA    popax                     000DD2 RLA    
incsp2                    000DD9 RLA    incsp4                    000DE7 RLA    
ldax0sp                   000DEC RLA    ldaxysp                   000DEE RLA    
negeax                    000DF5 RLA    pusheax                   000E1A RLA    
_ltoa                     000E49 RLA    _ultoa                    000E88 RLA    
tosmoda0                  000EC4 RLA    negax                     000ED9 RLA    
popptr1                   000EE7 RLA    push1                     000EF5 RLA    
pusha                     000EFE RLA    pusha0                    000F12 RLA    
pushax                    000F14 RLA    pushwysp                  000F2C RLA    
popsargsudiv16            000F46 RLA    stax0sp                   000F66 RLA    
staxysp                   000F68 RLA    _strlen                   000F71 RLA    
_strlower                 000F87 RLA    udiv16                    000FBF RLA    
_vcprintf                 001045 RLA    zerobss                   001075 RLA    
_cputc                    001098 RLA    gotoxy                    00109E RLA    
__DATA_LOAD__             00109F RLA    __DATA_RUN__              00109F RLA    
__hextab                  001113 RLA    __longminstr              001123 RLA    
__ctype                   00112F RLA    __ctypeidx                00113A RLA    
__BSS_RUN__               0011BA RLA    __RAM_SIZE__              00C800 REA    



Imports list:
-------------
__BSS_RUN__ ([linker generated]):
    zerobss.o                 common/zerobss.s(8)
__BSS_SIZE__ ([linker generated]):
    zerobss.o                 common/zerobss.s(8)
__CONSTRUCTOR_COUNT__ ([linker generated]):
    condes.o                  runtime/condes.s(18)
__CONSTRUCTOR_TABLE__ ([linker generated]):
    condes.o                  runtime/condes.s(18)
__DATA_LOAD__ ([linker generated]):
    copydata.o                common/copydata.s(8)
__DATA_RUN__ ([linker generated]):
    copydata.o                common/copydata.s(8)
__DATA_SIZE__ ([linker generated]):
    copydata.o                common/copydata.s(8)
__DESTRUCTOR_COUNT__ ([linker generated]):
    condes.o                  runtime/condes.s(19)
__DESTRUCTOR_TABLE__ ([linker generated]):
    condes.o                  runtime/condes.s(19)
__RAM_SIZE__ ([linker generated]):
    crt0.o                    crt0.s(14)
__RAM_START__ ([linker generated]):
    crt0.o                    crt0.s(14)
__STARTUP__ (crt0.o):
    assign.o                  assign.s(13)
__ctype (ctype.o):
    ctypemask.o               common/ctypemask.s(23)
__ctypeidx (ctype.o):
    ctypemask.o               common/ctypemask.s(24)
__hextab (_hextab.o):
    ltoa.o                    common/ltoa.s(10)
__longminstr (_longminstr.o):
    ltoa.o                    common/ltoa.s(10)
__printf (_printf.o):
    vcprintf.o                conio/vcprintf.s(9)
_cprintf (cprintf.o):
    assign.o                  assign.s(15)
_cputc (nhyodyne.o):
    vcprintf.o                conio/vcprintf.s(9)
    cputs.o                   conio/cputs.s(9)
_cputs (cputs.o):
    assign.o                  assign.s(14)
_ltoa (ltoa.o):
    _printf.o                 common/_printf.s(12)
_main (assign.o):
    crt0.o                    crt0.s(11)
_strlen (strlen.o):
    _printf.o                 common/_printf.s(13)
_strlower (strlower.o):
    _printf.o                 common/_printf.s(13)
_ultoa (ltoa.o):
    _printf.o                 common/_printf.s(12)
_vcprintf (vcprintf.o):
    cprintf.o                 conio/cprintf.s(8)
addysp (addysp.o):
    incsp4.o                  runtime/incsp4.s(8)
    cprintf.o                 conio/cprintf.s(8)
axlong (axlong.o):
    _printf.o                 common/_printf.s(11)
axulong (axlong.o):
    _printf.o                 common/_printf.s(11)
copydata (copydata.o):
    crt0.o                    crt0.s(16)
ctypemaskdirect (ctypemask.o):
    strlower.o                common/strlower.s(14)
decsp2 (decsp2.o):
    assign.o                  assign.s(187)
decsp4 (decsp4.o):
    lpush.o                   runtime/lpush.s(12)
decsp6 (decsp6.o):
    _printf.o                 common/_printf.s(11)
donelib (condes.o):
    crt0.o                    crt0.s(16)
gotoxy (nhyodyne.o):
    cputs.o                   conio/cputs.s(9)
incaxy (incaxy.o):
    assign.o                  assign.s(187)
incsp1 (incsp1.o):
    assign.o                  assign.s(187)
incsp2 (incsp2.o):
    popptr1.o                 runtime/popptr1.s(8)
    assign.o                  assign.s(187)
incsp4 (incsp4.o):
    assign.o                  assign.s(187)
initlib (condes.o):
    crt0.o                    crt0.s(16)
ldax0sp (ldaxsp.o):
    assign.o                  assign.s(187)
    assign.o                  assign.s(187)
ldaxysp (ldaxsp.o):
    assign.o                  assign.s(187)
negax (negabs.o):
    shelp.o                   runtime/shelp.s(11)
    mod.o                     runtime/mod.s(11)
negeax (lneg.o):
    ltoa.o                    common/ltoa.s(9)
popax (incsp2.o):
    ltoa.o                    common/ltoa.s(9)
    _printf.o                 common/_printf.s(11)
    vcprintf.o                conio/vcprintf.s(8)
    shelp.o                   runtime/shelp.s(11)
popptr1 (popptr1.o):
    ltoa.o                    common/ltoa.s(9)
    vcprintf.o                conio/vcprintf.s(8)
    udiv.o                    runtime/udiv.s(9)
popsargsudiv16 (shelp.o):
    mod.o                     runtime/mod.s(11)
ptr1 (zeropage.o):
    strlower.o                common/strlower.s(13)
    popptr1.o                 runtime/popptr1.s(9)
    ltoa.o                    common/ltoa.s(11)
    copydata.o                common/copydata.s(9)
    _printf.o                 /home/dwerner/cc65/asminc/zeropage.inc(12)
    zerobss.o                 common/zerobss.s(9)
    vcprintf.o                conio/vcprintf.s(10)
    udiv.o                    runtime/udiv.s(10)
    shelp.o                   runtime/shelp.s(12)
    cputs.o                   conio/cputs.s(10)
    cprintf.o                 conio/cprintf.s(9)
    assign.o                  assign.s(11)
ptr2 (zeropage.o):
    strlower.o                common/strlower.s(13)
    strlen.o                  common/strlen.s(12)
    ltoa.o                    common/ltoa.s(11)
    copydata.o                common/copydata.s(9)
    _printf.o                 /home/dwerner/cc65/asminc/zeropage.inc(12)
    vcprintf.o                conio/vcprintf.s(10)
ptr3 (zeropage.o):
    ltoa.o                    common/ltoa.s(11)
    vcprintf.o                conio/vcprintf.s(10)
ptr4 (zeropage.o):
    udiv.o                    runtime/udiv.s(10)
    shelp.o                   runtime/shelp.s(12)
push1 (push1.o):
    _printf.o                 common/_printf.s(11)
pusha (pusha.o):
    assign.o                  assign.s(187)
pusha0 (pushax.o):
    push1.o                   runtime/push1.s(8)
    assign.o                  assign.s(187)
    assign.o                  assign.s(187)
pushax (pushax.o):
    _printf.o                 common/_printf.s(11)
    vcprintf.o                conio/vcprintf.s(8)
    cprintf.o                 conio/cprintf.s(8)
    assign.o                  assign.s(187)
    assign.o                  assign.s(187)
    assign.o                  assign.s(187)
pusheax (lpush.o):
    _printf.o                 common/_printf.s(11)
pushwysp (pushwsp.o):
    assign.o                  assign.s(187)
regbank (zeropage.o):
    _printf.o                 /home/dwerner/cc65/asminc/zeropage.inc(14)
regsave (zeropage.o):
    assign.o                  assign.s(10)
sp (zeropage.o):
    decsp4.o                  runtime/decsp4.s(8)
    popptr1.o                 runtime/popptr1.s(9)
    lpush.o                   runtime/lpush.s(13)
    decsp6.o                  runtime/decsp6.s(8)
    addysp.o                  runtime/addysp.s(8)
    _printf.o                 /home/dwerner/cc65/asminc/zeropage.inc(11)
    vcprintf.o                conio/vcprintf.s(10)
    staxsp.o                  runtime/staxsp.s(8)
    pushwsp.o                 runtime/pushwsp.s(8)
    pushax.o                  runtime/pushax.s(8)
    pusha.o                   runtime/pusha.s(8)
    ldaxsp.o                  runtime/ldaxsp.s(8)
    incsp2.o                  runtime/incsp2.s(8)
    incsp1.o                  runtime/incsp1.s(8)
    decsp2.o                  runtime/decsp2.s(8)
    crt0.o                    /usr/share/cc65/asminc/zeropage.inc(11)
    cprintf.o                 conio/cprintf.s(9)
    add.o                     runtime/add.s(12)
    assign.o                  assign.s(10)
sreg (zeropage.o):
    lneg.o                    runtime/lneg.s(11)
    ltoa.o                    common/ltoa.s(11)
    lpush.o                   runtime/lpush.s(13)
    axlong.o                  runtime/axlong.s(9)
    _printf.o                 /home/dwerner/cc65/asminc/zeropage.inc(11)
    udiv.o                    runtime/udiv.s(10)
    mod.o                     runtime/mod.s(12)
stax0sp (staxsp.o):
    assign.o                  assign.s(187)
staxysp (staxsp.o):
    assign.o                  assign.s(187)
tmp1 (zeropage.o):
    ltoa.o                    common/ltoa.s(11)
    copydata.o                common/copydata.s(9)
    _printf.o                 /home/dwerner/cc65/asminc/zeropage.inc(13)
    vcprintf.o                conio/vcprintf.s(10)
    shelp.o                   runtime/shelp.s(12)
    mod.o                     runtime/mod.s(12)
    incaxy.o                  runtime/incaxy.s(8)
    cputs.o                   conio/cputs.s(10)
tmp2 (zeropage.o):
    shelp.o                   runtime/shelp.s(12)
tosaddax (add.o):
    assign.o                  assign.s(187)
tosmoda0 (mod.o):
    assign.o                  assign.s(187)
udiv16 (udiv.o):
    shelp.o                   runtime/shelp.s(11)
zerobss (zerobss.o):
    crt0.o                    crt0.s(16)

